(dp1
S'Mohammad Khakpour'
p2
S'/player/mohammad-khakpour'
p3
sS'Mamadou Diallo'
p4
S'/player/mamadou-diallo'
p5
sS'Cesar Delgado'
p6
S'/player/cesar-delgado'
p7
sS'Drew Moor'
p8
S'/player/drew-moor'
p9
sS'Adolfo Gregorio'
p10
S'/player/adolfo-gregorio'
p11
sS'Ryan Coiner'
p12
S'/player/ryan-coiner'
p13
sS'Peter Woodring'
p14
S'/player/peter-woodring'
p15
sS'Timo Liekoski'
p16
S'/player/timo-liekoski'
p17
sS'Jay Nolly'
p18
S'/player/jay-nolly'
p19
sS'Manuel Lagos'
p20
S'/player/manuel-lagos'
p21
sS'Fabio Zuniga'
p22
S'/player/fabio-zuniga'
p23
sS'Antony De Avila'
p24
S'/player/antony-de-avila'
p25
sS'Michael Behonick'
p26
S'/player/michael-behonick'
p27
sS'David Habarugira'
p28
S'/player/david-habarugira'
p29
sS'Marcos Charras'
p30
S'/player/marcos-charras'
p31
sS'Andrew Dykstra'
p32
S'/player/andrew-dykstra'
p33
sS'Lance Friesz'
p34
S'/player/lance-friesz'
p35
sS'Ivan Becerra'
p36
S'/player/ivan-becerra'
p37
sS'David Moxom'
p38
S'/player/david-moxom'
p39
sS'Earnie Stewart'
p40
S'/player/earnie-stewart'
p41
sS'Bradley Friedel'
p42
S'/player/bradley-friedel'
p43
sS'Ricci Greenwood'
p44
S'/player/ricci-greenwood'
p45
sS'Denny Clanton'
p46
S'/player/denny-clanton'
p47
sS'Angel Rivillo'
p48
S'/player/angel-rivillo'
p49
sS'Landon Donovan'
p50
S'/player/landon-donovan'
p51
sS'Marvin Chavez'
p52
S'/player/marvin-chavez'
p53
sS'Michael Ritch'
p54
S'/player/michael-ritch'
p55
sS'David Mahoney'
p56
S'/player/david-mahoney'
p57
sS'Chris Corcoran'
p58
S'/player/chris-corcoran'
p59
sS'Sean Henderson'
p60
S'/player/sean-henderson'
p61
sS'Luchi Gonzalez'
p62
S'/player/luchi-gonzalez'
p63
sS'Nick Kounenakis'
p64
S'/player/nick-kounenakis'
p65
sS'Shawn Crowe'
p66
S'/player/shawn-crowe'
p67
sS'Bill Gaudette'
p68
S'/player/bill-gaudette'
p69
sS'Abe Thompson'
p70
S'/player/abe-thompson'
p71
sS'Russell Payne'
p72
S'/player/russell-payne'
p73
sS'Ben Iroha'
p74
S'/player/ben-iroha'
p75
sS'Felipe Rodriguez'
p76
S'/player/felipe-rodriguez'
p77
sS'Roy Miller'
p78
S'/player/roy-miller'
p79
sS'David Guzman'
p80
S'/player/david-guzman'
p81
sS'Craig Rocastle'
p82
S'/player/craig-rocastle'
p83
sS'Shawn Medved'
p84
S'/player/shawn-medved'
p85
sS'Ely Allen'
p86
S'/player/ely-allen'
p87
sS'Laurie Calloway'
p88
S'/player/laurie-calloway'
p89
sS'Kenneth Hoerner'
p90
S'/player/kenneth-hoerner'
p91
sS'Stephen Lumley'
p92
S'/player/stephen-lumley'
p93
sS'Richard Weiszmann'
p94
S'/player/richard-weiszmann'
p95
sS'Dario Sala'
p96
S'/player/dario-sala'
p97
sS'Andre Rocha'
p98
S'/player/andre-rocha'
p99
sS'Roger Levesque'
p100
S'/player/roger-levesque'
p101
sS'Scott Bower'
p102
S'/player/scott-bower'
p103
sS'Dave Salzwedel'
p104
S'/player/dave-salzwedel'
p105
sS'David Vaudreuil'
p106
S'/player/david-vaudreuil'
p107
sS'Kevin Knight'
p108
S'/player/kevin-knight'
p109
sS'Brandon McDonald'
p110
S'/player/brandon-mcdonald'
p111
sS'Stephen Shirley'
p112
S'/player/stephen-shirley'
p113
sS'Kyle Nakazawa'
p114
S'/player/kyle-nakazawa'
p115
sS'Jamison Olave'
p116
S'/player/jamison-olave'
p117
sS'Brian McBride'
p118
S'/player/brian-mcbride'
p119
sS'Kyriakos Stamatopoulos'
p120
S'/player/kyriakos-stamatopoulos'
p121
sS'Blair Gavin'
p122
S'/player/blair-gavin'
p123
sS'Nana Attakora'
p124
S'/player/nana-attakora'
p125
sS'Chris Jahr'
p126
S'/player/chris-jahr'
p127
sS'Kevin Reiman'
p128
S'/player/kevin-reiman'
p129
sS'Matt Napoleon'
p130
S'/player/matt-napoleon'
p131
sS'Dasan Robinson'
p132
S'/player/dasan-robinson'
p133
sS'Keith Savage'
p134
S'/player/keith-savage'
p135
sS'Nicholas Addlery'
p136
S'/player/nicholas-addlery'
p137
sS'Shaun Bartlett'
p138
S'/player/shaun-bartlett'
p139
sS'Don Gramenz'
p140
S'/player/don-gramenz'
p141
sS'Ibrahim Kante'
p142
S'/player/ibrahim-kante'
p143
sS'Jeremy Aldrich'
p144
S'/player/jeremy-aldrich'
p145
sS'Adam Throop'
p146
S'/player/adam-throop'
p147
sS'Osvaldo Alonso'
p148
S'/player/osvaldo-alonso'
p149
sS'Victor Sikora'
p150
S'/player/victor-sikora'
p151
sS'Sergi Daniv'
p152
S'/player/sergi-daniv'
p153
sS'James Holmes'
p154
S'/player/james-holmes'
p155
sS'Joseph Addo'
p156
S'/player/joseph-addo'
p157
sS'Leonard Griffin'
p158
S'/player/leonard-griffin'
p159
sS'Pablo Mastroeni'
p160
S'/player/pablo-mastroeni'
p161
sS'Daniel Paladini'
p162
S'/player/daniel-paladini'
p163
sS'Joshua Elbaum'
p164
S'/player/joshua-elbaum'
p165
sS'Carlos Borja'
p166
S'/player/carlos-borja'
p167
sS'Franco Niell'
p168
S'/player/franco-niell'
p169
sS'Yamith Cuesta'
p170
S'/player/yamith-cuesta'
p171
sS'Sean Johnson'
p172
S'/player/sean-johnson'
p173
sS'Patrick McGinnis'
p174
S'/player/patrick-mcginnis'
p175
sS'Nelson Gonzalez'
p176
S'/player/nelson-gonzalez'
p177
sS'Brian West'
p178
S'/player/brian-west'
p179
sS'Martin Zuniga'
p180
S'/player/martin-zuniga'
p181
sS'Nick Theslof'
p182
S'/player/nick-theslof'
p183
sS'Brad North'
p184
S'/player/brad-north'
p185
sS'Kris Kelderman'
p186
S'/player/kris-kelderman'
p187
sS'Tim Howard'
p188
S'/player/tim-howard'
p189
sS'Scott Vallow'
p190
S'/player/scott-vallow'
p191
sS'Paul Keegan'
p192
S'/player/paul-keegan'
p193
sS'Jacob Thomas'
p194
S'/player/jacob-thomas'
p195
sS'Jair Benitez'
p196
S'/player/jair-benitez'
p197
sS'Mike Caso'
p198
S'/player/mike-caso'
p199
sS'Bouna Coundoul'
p200
S'/player/bouna-coundoul'
p201
sS'Andrew Gray'
p202
S'/player/andrew-gray'
p203
sS'Carlos Rocha'
p204
S'/player/carlos-rocha'
p205
sS'Adin Brown'
p206
S'/player/adin-brown'
p207
sS'Steve Bell'
p208
S'/player/steve-bell'
p209
sS'David Testo'
p210
S'/player/david-testo'
p211
sS'Philip Salyer'
p212
S'/player/philip-salyer'
p213
sS'Octavio Zambrano'
p214
S'/player/octavio-zambrano'
p215
sS'Ramon Nunez'
p216
S'/player/ramon-nunez'
p217
sS'John Doyle'
p218
S'/player/john-doyle'
p219
sS'Uche Okafor'
p220
S'/player/uche-okafor'
p221
sS'Edmundo Rodriguez'
p222
S'/player/edmundo-rodriguez'
p223
sS'Manuel Agogo'
p224
S'/player/manuel-agogo'
p225
sS'Ian Woan'
p226
S'/player/ian-woan'
p227
sS'Pat Haggerty'
p228
S'/player/pat-haggerty'
p229
sS'Ricardo Phillips'
p230
S'/player/ricardo-phillips'
p231
sS'Baggio Husidic'
p232
S'/player/baggio-husidic'
p233
sS'Julien Baudet'
p234
S'/player/julien-baudet'
p235
sS'John Jairo Trellez'
p236
S'/player/john-jairo-trellez'
p237
sS'Arturo Torres'
p238
S'/player/arturo-torres'
p239
sS'Andy Metcalf'
p240
S'/player/andy-metcalf'
p241
sS'Hugo Sanchez'
p242
S'/player/hugo-sanchez'
p243
sS'Matias Mantilla'
p244
S'/player/matias-mantilla'
p245
sS'Will John'
p246
S'/player/will-john'
p247
sS'Duke Hashimoto'
p248
S'/player/duke-hashimoto'
p249
sS'Danny Pena'
p250
S'/player/danny-pena'
p251
sS'Jim Welch'
p252
S'/player/jim-welch'
p253
sS'Wojtek Krakowiak'
p254
S'/player/wojtek-krakowiak'
p255
sS'Jay Heaps'
p256
S'/player/jay-heaps'
p257
sS'Josh Keller'
p258
S'/player/josh-keller'
p259
sS'Cesar Zambrano'
p260
S'/player/cesar-zambrano'
p261
sS'Blaise Nkufo'
p262
S'/player/blaise-nkufo'
p263
sS'Darin Lewis'
p264
S'/player/darin-lewis'
p265
sS'Andrei Pacheco'
p266
S'/player/andrei-pacheco'
p267
sS'Tyler Deric'
p268
S'/player/tyler-deric'
p269
sS'Kelly Gray'
p270
S'/player/kelly-gray'
p271
sS'Antonio de la Torre'
p272
S'/player/antonio-de-la-torre'
p273
sS'Ante Razov'
p274
S'/player/ante-razov'
p275
sS'Mauricio Ramos'
p276
S'/player/mauricio-ramos'
p277
sS'Brandon Ward'
p278
S'/player/brandon-ward'
p279
sS'Eric Denton'
p280
S'/player/eric-denton'
p281
sS'Edgar Hernandez'
p282
S'/player/edgar-hernandez'
p283
sS'Clint Baumstark'
p284
S'/player/clint-baumstark'
p285
sS'David Quesada'
p286
S'/player/david-quesada'
p287
sS'Steve Shak'
p288
S'/player/steve-shak'
p289
sS'Diego Walsh'
p290
S'/player/diego-walsh'
p291
sS'Sebastian Botero'
p292
S'/player/sebastian-botero'
p293
sS'Roberto Donadoni'
p294
S'/player/roberto-donadoni'
p295
sS'Michael Gustavson'
p296
S'/player/michael-gustavson'
p297
sS'Roy Lassiter'
p298
S'/player/roy-lassiter'
p299
sS'Ralph Perez'
p300
S'/player/ralph-perez'
p301
sS'Maurice Edu'
p302
S'/player/maurice-edu'
p303
sS'Michael Erush'
p304
S'/player/michael-erush'
p305
sS'Leonard Bisaku'
p306
S'/player/leonard-bisaku'
p307
sS'Branko Boskovic'
p308
S'/player/branko-boskovic'
p309
sS'Mario Torres'
p310
S'/player/mario-torres'
p311
sS'Alex Bengard'
p312
S'/player/alex-bengard'
p313
sS'Michael Holody'
p314
S'/player/michael-holody'
p315
sS'Alexander Yi'
p316
S'/player/alexander-yi'
p317
sS'Kevin Forrest'
p318
S'/player/kevin-forrest'
p319
sS'Roy Wegerle'
p320
S'/player/roy-wegerle'
p321
sS'Jose Cancela'
p322
S'/player/jose-cancela'
p323
sS'Carlos Cordoba'
p324
S'/player/carlos-cordoba'
p325
sS'Ben Crawley'
p326
S'/player/ben-crawley'
p327
sS'Shane Battelle'
p328
S'/player/shane-battelle'
p329
sS'Kevin Rueda'
p330
S'/player/kevin-rueda'
p331
sS'Lamar Neagle'
p332
S'/player/lamar-neagle'
p333
sS'Justin Evans'
p334
S'/player/justin-evans'
p335
sS'Samuel Ekeme'
p336
S'/player/samuel-ekeme'
p337
sS'Javier Robles'
p338
S'/player/javier-robles'
p339
sS'Dario Brose'
p340
S'/player/dario-brose'
p341
sS'Steve Armas'
p342
S'/player/steve-armas'
p343
sS'Victor Mella'
p344
S'/player/victor-mella'
p345
sS'Greg Janicki'
p346
S'/player/greg-janicki'
p347
sS'Kevin Burns'
p348
S'/player/kevin-burns'
p349
sS'Nick Garcia'
p350
S'/player/nick-garcia'
p351
sS'Mark Chung'
p352
S'/player/mark-chung'
p353
sS'Pedro Alvarez'
p354
S'/player/pedro-alvarez'
p355
sS'Craig Waibel'
p356
S'/player/craig-waibel'
p357
sS'Vito Higgins'
p358
S'/player/vito-higgins'
p359
sS'Victor Arbelaez'
p360
S'/player/victor-arbelaez'
p361
sS'Carlos Semedo'
p362
S'/player/carlos-semedo'
p363
sS'Zac Herold'
p364
S'/player/zac-herold'
p365
sS'George John'
p366
S'/player/george-john'
p367
sS'Tom McLaughlin'
p368
S'/player/tom-mclaughlin'
p369
sS'Tiyiselani Shipalane'
p370
S'/player/tiyiselani-shipalane'
p371
sS'Chase Harrison'
p372
S'/player/chase-harrison'
p373
sS'Nelson Akwari'
p374
S'/player/nelson-akwari'
p375
sS'Tony Soto'
p376
S'/player/tony-soto'
p377
sS'Aaron Lopez'
p378
S'/player/aaron-lopez'
p379
sS'Nelson Vargas'
p380
S'/player/nelson-vargas'
p381
sS'Craig Yacks'
p382
S'/player/craig-yacks'
p383
sS'Mauricio Cienfuegos'
p384
S'/player/mauricio-cienfuegos'
p385
sS'Fredy Montero'
p386
S'/player/fredy-montero'
p387
sS'Adam Frye'
p388
S'/player/adam-frye'
p389
sS'Terry Boss'
p390
S'/player/terry-boss'
p391
sS'Santino Quaranta'
p392
S'/player/santino-quaranta'
p393
sS'Mike Munoz'
p394
S'/player/mike-munoz'
p395
sS'Adrian Cann'
p396
S'/player/adrian-cann'
p397
sS'Gabriel Badilla'
p398
S'/player/gabriel-badilla'
p399
sS'Miguel Pineda'
p400
S'/player/miguel-pineda'
p401
sS'J.T. Noone'
p402
S'/player/jt-noone'
p403
sS'Teal Bunbury'
p404
S'/player/teal-bunbury'
p405
sS'Adam Cristman'
p406
S'/player/adam-cristman'
p407
sS'Geoff Cameron'
p408
S'/player/geoff-cameron'
p409
sS'Douglas Lascody'
p410
S'/player/douglas-lascody'
p411
sS'Washington Rodriguez'
p412
S'/player/washington-rodriguez'
p413
sS'Ian Hennessey'
p414
S'/player/ian-hennessey'
p415
sS'Preston Burpo'
p416
S'/player/preston-burpo'
p417
sS'Gerson Echeverry'
p418
S'/player/gerson-echeverry'
p419
sS'Michael Cardenas'
p420
S'/player/michael-cardenas'
p421
sS'Ross Schunk'
p422
S'/player/ross-schunk'
p423
sS'C.J. Brown'
p424
S'/player/cj-brown'
p425
sS'Mike Petke'
p426
S'/player/mike-petke'
p427
sS'Brian Loftin'
p428
S'/player/brian-loftin'
p429
sS'Stephane Assengue'
p430
S'/player/stephane-assengue'
p431
sS'Matt Jordan'
p432
S'/player/matt-jordan'
p433
sS'Justin Detter'
p434
S'/player/justin-detter'
p435
sS'Jorge Rodas'
p436
S'/player/jorge-rodas'
p437
sS'Evan Whitfield'
p438
S'/player/evan-whitfield'
p439
sS"Ciaran O'Brien"
p440
S'/player/ciaran-obrien'
p441
sS'Joao Batista'
p442
S'/player/joao-batista'
p443
sS'Aidan Heaney'
p444
S'/player/aidan-heaney'
p445
sS'Josh Saunders'
p446
S'/player/josh-saunders'
p447
sS'Jesus Morales'
p448
S'/player/jesus-morales'
p449
sS"Mawete N'Silu"
p450
S'/player/mawete-nsilu'
p451
sS"O'Neil Peart"
p452
S'/player/oneil-peart'
p453
sS'Pablo Brenes'
p454
S'/player/pablo-brenes'
p455
sS'Matt Nickell'
p456
S'/player/matt-nickell'
p457
sS'Dan Stebbins'
p458
S'/player/dan-stebbins'
p459
sS'David Allred'
p460
S'/player/david-allred'
p461
sS'Sandy Gbandi'
p462
S'/player/sandy-gbandi'
p463
sS'Ryan Tinsley'
p464
S'/player/ryan-tinsley'
p465
sS'Eric Wynalda'
p466
S'/player/eric-wynalda'
p467
sS'Yomby William'
p468
S'/player/yomby-william'
p469
sS'Richard Kotschau'
p470
S'/player/richard-kotschau'
p471
sS'Denis Hamlett'
p472
S'/player/denis-hamlett'
p473
sS'Miroslaw Rzepa'
p474
S'/player/miroslaw-rzepa'
p475
sS'Jorge Vazquez'
p476
S'/player/jorge-vazquez'
p477
sS'Richard Goulooze'
p478
S'/player/richard-goulooze'
p479
sS'Juan Sastoque'
p480
S'/player/juan-sastoque'
p481
sS'Andre Akpan'
p482
S'/player/andre-akpan'
p483
sS'DaMarcus Beasley'
p484
S'/player/damarcus-beasley'
p485
sS'Chris Brown'
p486
S'/player/chris-brown'
p487
sS'Wade Webber'
p488
S'/player/wade-webber'
p489
sS'Thomas Tomasso'
p490
S'/player/thomas-tomasso'
p491
sS'Sean Franklin'
p492
S'/player/sean-franklin'
p493
sS'Lyle Yorks'
p494
S'/player/lyle-yorks'
p495
sS'Rodion Dyachenko'
p496
S'/player/rodion-dyachenko'
p497
sS'Stephen Wondolowski'
p498
S'/player/stephen-wondolowski'
p499
sS'Paul Holocher'
p500
S'/player/paul-holocher'
p501
sS'R.T. Moore'
p502
S'/player/rt-moore'
p503
sS'Lee Morrison'
p504
S'/player/lee-morrison'
p505
sS'Petter Villegas'
p506
S'/player/petter-villegas'
p507
sS'Stern John'
p508
S'/player/stern-john'
p509
sS'Cole Burgman'
p510
S'/player/cole-burgman'
p511
sS'Thomas Ravelli'
p512
S'/player/thomas-ravelli'
p513
sS'Ryshiem Henderson'
p514
S'/player/ryshiem-henderson'
p515
sS'David Patino'
p516
S'/player/david-patino'
p517
sS'Brian Bates'
p518
S'/player/brian-bates'
p519
sS'Duncan Oughton'
p520
S'/player/duncan-oughton'
p521
sS'Mac Cozier'
p522
S'/player/mac-cozier'
p523
sS'Hunter Freeman'
p524
S'/player/hunter-freeman'
p525
sS'Dax McCarty'
p526
S'/player/dax-mccarty'
p527
sS"O'Brian White"
p528
S'/player/obrian-white'
p529
sS'Pablo Vitti'
p530
S'/player/pablo-vitti'
p531
sS'Kevin Harmse'
p532
S'/player/kevin-harmse'
p533
sS'Mauro  Fuzetti'
p534
S'/player/mauro--fuzetti'
p535
sS'Matt Besler'
p536
S'/player/matt-besler'
p537
sS'Anthony Farras'
p538
S'/player/anthony-farras'
p539
sS'Kasey Keller'
p540
S'/player/kasey-keller'
p541
sS'Tim Merritt'
p542
S'/player/tim-merritt'
p543
sS'Abdoulaye Ibrahim'
p544
S'/player/abdoulaye-ibrahim'
p545
sS'Derek Gaudet'
p546
S'/player/derek-gaudet'
p547
sS'Tim Lawson'
p548
S'/player/tim-lawson'
p549
sS'Martin Saric'
p550
S'/player/martin-saric'
p551
sS'Matt Kmosko'
p552
S'/player/matt-kmosko'
p553
sS'Danny Care'
p554
S'/player/danny-care'
p555
sS'Tim Regan'
p556
S'/player/tim-regan'
p557
sS'Ed Puskarich'
p558
S'/player/ed-puskarich'
p559
sS'Jamie Smith'
p560
S'/player/jamie-smith'
p561
sS'Cameron Knowles'
p562
S'/player/cameron-knowles'
p563
sS'Yura Movsisyan'
p564
S'/player/yura-movsisyan'
p565
sS'Stephen Howey'
p566
S'/player/stephen-howey'
p567
sS'Ednaldo da Conceicao'
p568
S'/player/ednaldo-da-conceicao'
p569
sS'Frankie Hejduk'
p570
S'/player/frankie-hejduk'
p571
sS'Steven Lenhart'
p572
S'/player/steven-lenhart'
p573
sS'John Harkes'
p574
S'/player/john-harkes'
p575
sS'Guy Melamed'
p576
S'/player/guy-melamed'
p577
sS'Rodrigo Lopez'
p578
S'/player/rodrigo-lopez'
p579
sS'Dan Moss'
p580
S'/player/dan-moss'
p581
sS'Brad Wilson'
p582
S'/player/brad-wilson'
p583
sS'Mark Santel'
p584
S'/player/mark-santel'
p585
sS'Yherland McDonald'
p586
S'/player/yherland-mcdonald'
p587
sS'Velibor Milutinovic'
p588
S'/player/velibor-milutinovic'
p589
sS'Freddy Adu'
p590
S'/player/freddy-adu'
p591
sS'Iain Fraser'
p592
S'/player/iain-fraser'
p593
sS'Richard Mulrooney'
p594
S'/player/richard-mulrooney'
p595
sS'Jacek Ziober'
p596
S'/player/jacek-ziober'
p597
sS'Alvaro Alves Pires'
p598
S'/player/alvaro-alves-pires'
p599
sS'Ryan Miller'
p600
S'/player/ryan-miller'
p601
sS'Daniel Popik'
p602
S'/player/daniel-popik'
p603
sS'Kenny Arena'
p604
S'/player/kenny-arena'
p605
sS'Johnny Garcia'
p606
S'/player/johnny-garcia'
p607
sS'Jeff Zaun'
p608
S'/player/jeff-zaun'
p609
sS'Paul Marcoullier'
p610
S'/player/paul-marcoullier'
p611
sS'Domenic Mediate'
p612
S'/player/domenic-mediate'
p613
sS'Danny Szetela'
p614
S'/player/danny-szetela'
p615
sS'Elie Ikangu'
p616
S'/player/elie-ikangu'
p617
sS'Winston Marshall'
p618
S'/player/winston-marshall'
p619
sS'Obi Monome'
p620
S'/player/obi-monome'
p621
sS'Marcus Sagastume'
p622
S'/player/marcus-sagastume'
p623
sS'Jason Farrell'
p624
S'/player/jason-farrell'
p625
sS'Jorge Salcedo'
p626
S'/player/jorge-salcedo'
p627
sS'Guido Neto'
p628
S'/player/guido-neto'
p629
sS'Rafael Amaya'
p630
S'/player/rafael-amaya'
p631
sS'Glenn Myernick'
p632
S'/player/glenn-myernick'
p633
sS'Neathan Gibson'
p634
S'/player/neathan-gibson'
p635
sS'Blake Camp'
p636
S'/player/blake-camp'
p637
sS'Danilo da Silva'
p638
S'/player/danilo-da-silva'
p639
sS'Joseph Ngwenya'
p640
S'/player/joseph-ngwenya'
p641
sS'Danny Cepero'
p642
S'/player/danny-cepero'
p643
sS'David Ben Dayan'
p644
S'/player/david-ben-dayan'
p645
sS'Marcelo Saragosa'
p646
S'/player/marcelo-saragosa'
p647
sS'Javier Morales'
p648
S'/player/javier-morales'
p649
sS'Josh Wicks'
p650
S'/player/josh-wicks'
p651
sS'Antony Caig'
p652
S'/player/antony-caig'
p653
sS'Eddie Pope'
p654
S'/player/eddie-pope'
p655
sS'Patrick Ianni'
p656
S'/player/patrick-ianni'
p657
sS'Daniel Osorno'
p658
S'/player/daniel-osorno'
p659
sS'Raivis Hscanovics'
p660
S'/player/raivis-hscanovics'
p661
sS'David Johnson'
p662
S'/player/david-johnson'
p663
sS'Alijohn Utush'
p664
S'/player/alijohn-utush'
p665
sS'Michael Ghebru'
p666
S'/player/michael-ghebru'
p667
sS'John Spencer'
p668
S'/player/john-spencer'
p669
sS'Tommy Krizanovic'
p670
S'/player/tommy-krizanovic'
p671
sS'Kai Kasiguran'
p672
S'/player/kai-kasiguran'
p673
sS'Carlos Llamosa'
p674
S'/player/carlos-llamosa'
p675
sS'Chris Klein'
p676
S'/player/chris-klein'
p677
sS'William Hesmer'
p678
S'/player/william-hesmer'
p679
sS'Ty Maurin'
p680
S'/player/ty-maurin'
p681
sS'Shaun Francis'
p682
S'/player/shaun-francis'
p683
sS'Jorge Barrera'
p684
S'/player/jorge-barrera'
p685
sS'Ryan Latham'
p686
S'/player/ryan-latham'
p687
sS'Amobi Okugo'
p688
S'/player/amobi-okugo'
p689
sS'Brian Gil'
p690
S'/player/brian-gil'
p691
sS'Jeremy Hall'
p692
S'/player/jeremy-hall'
p693
sS'Peri Marosevic'
p694
S'/player/peri-marosevic'
p695
sS'Tony Lochhead'
p696
S'/player/tony-lochhead'
p697
sS'Jovan Kirovski'
p698
S'/player/jovan-kirovski'
p699
sS'Kyle Reynish'
p700
S'/player/kyle-reynish'
p701
sS'John DiRaimondo'
p702
S'/player/john-diraimondo'
p703
sS'Tighe Dombrowski'
p704
S'/player/tighe-dombrowski'
p705
sS'Ryan Raybould'
p706
S'/player/ryan-raybould'
p707
sS'Roberto Brown'
p708
S'/player/roberto-brown'
p709
sS'Percy Olivares'
p710
S'/player/percy-olivares'
p711
sS'Mike Sorber'
p712
S'/player/mike-sorber'
p713
sS'Chris Brauchle'
p714
S'/player/chris-brauchle'
p715
sS'Seth Sinovic'
p716
S'/player/seth-sinovic'
p717
sS'Michael Orozco Fiscal'
p718
S'/player/michael-orozco-fiscal'
p719
sS'Mauricio Solis'
p720
S'/player/mauricio-solis'
p721
sS'Stefan Dimitrov'
p722
S'/player/stefan-dimitrov'
p723
sS'Graham Zusi'
p724
S'/player/graham-zusi'
p725
sS'Michael Burke'
p726
S'/player/michael-burke'
p727
sS'Bojan Vuckovic'
p728
S'/player/bojan-vuckovic'
p729
sS'Randy Merkel'
p730
S'/player/randy-merkel'
p731
sS'Ryan Junge'
p732
S'/player/ryan-junge'
p733
sS'Lawrence Lozzano'
p734
S'/player/lawrence-lozzano'
p735
sS'Leo Gonzalez'
p736
S'/player/leo-gonzalez'
p737
sS'Scott Palguta'
p738
S'/player/scott-palguta'
p739
sS'Steve Zakuani'
p740
S'/player/steve-zakuani'
p741
sS'Jeff Cunningham'
p742
S'/player/jeff-cunningham'
p743
sS'Jacob LeBlanc'
p744
S'/player/jacob-leblanc'
p745
sS'Barry Swift'
p746
S'/player/barry-swift'
p747
sS'Scott Jones'
p748
S'/player/scott-jones'
p749
sS'Patrick Nyarko'
p750
S'/player/patrick-nyarko'
p751
sS'Garland Cannon'
p752
S'/player/garland-cannon'
p753
sS'Welton Melo'
p754
S'/player/welton-melo'
p755
sS'Ian Butterworth'
p756
S'/player/ian-butterworth'
p757
sS'Brian Taylor'
p758
S'/player/brian-taylor'
p759
sS'Waldir Saenz'
p760
S'/player/waldir-saenz'
p761
sS'Mike McGinty'
p762
S'/player/mike-mcginty'
p763
sS'Marco Pappa'
p764
S'/player/marco-pappa'
p765
sS'Luciano Emilio'
p766
S'/player/luciano-emilio'
p767
sS'Ryan Pore'
p768
S'/player/ryan-pore'
p769
sS'Michael Butler'
p770
S'/player/michael-butler'
p771
sS'Perek Belleh'
p772
S'/player/perek-belleh'
p773
sS'Zack Schilawski'
p774
S'/player/zack-schilawski'
p775
sS'Giovanni Sequeira'
p776
S'/player/giovanni-sequeira'
p777
sS'Jamil Roberts'
p778
S'/player/jamil-roberts'
p779
sS'Juergen Sommer'
p780
S'/player/juergen-sommer'
p781
sS'Jason Perry'
p782
S'/player/jason-perry'
p783
sS'Kilian Elkinson'
p784
S'/player/kilian-elkinson'
p785
sS'Jeff Matteo'
p786
S'/player/jeff-matteo'
p787
sS'Joe Carver'
p788
S'/player/joe-carver'
p789
sS'Fuad Ibrahim'
p790
S'/player/fuad-ibrahim'
p791
sS'Chris Cummins'
p792
S'/player/chris-cummins'
p793
sS'Ryan Cochrane'
p794
S'/player/ryan-cochrane'
p795
sS'Carl Bussey'
p796
S'/player/carl-bussey'
p797
sS'Andrew Welsh'
p798
S'/player/andrew-welsh'
p799
sS'Jimmy Glenn'
p800
S'/player/jimmy-glenn'
p801
sS'Cory Elenio'
p802
S'/player/cory-elenio'
p803
sS'Ivan Guerrero'
p804
S'/player/ivan-guerrero'
p805
sS'Ian Pilarski'
p806
S'/player/ian-pilarski'
p807
sS'Dominic Schell'
p808
S'/player/dominic-schell'
p809
sS'Chris Bagley'
p810
S'/player/chris-bagley'
p811
sS'Maxim Usanov'
p812
S'/player/maxim-usanov'
p813
sS'Tino Nunez'
p814
S'/player/tino-nunez'
p815
sS'Chris Pontius'
p816
S'/player/chris-pontius'
p817
sS'Shea Salinas'
p818
S'/player/shea-salinas'
p819
sS'Eddie Gaven'
p820
S'/player/eddie-gaven'
p821
sS'Arturo Alvarez'
p822
S'/player/arturo-alvarez'
p823
sS'Arnold Cruz'
p824
S'/player/arnold-cruz'
p825
sS'Chris Roner'
p826
S'/player/chris-roner'
p827
sS'Fernando Fernandes'
p828
S'/player/fernando-fernandes'
p829
sS'Rohan Ricketts'
p830
S'/player/rohan-ricketts'
p831
sS'Adrian Paz'
p832
S'/player/adrian-paz'
p833
sS'Danny Califf'
p834
S'/player/danny-califf'
p835
sS'Richie Williams'
p836
S'/player/richie-williams'
p837
sS'Jonathan Bolanos'
p838
S'/player/jonathan-bolanos'
p839
sS'Matt Fundenberger'
p840
S'/player/matt-fundenberger'
p841
sS'A.J. Wood'
p842
S'/player/aj-wood'
p843
sS'Aaron Hohlbein'
p844
S'/player/aaron-hohlbein'
p845
sS'Carlos Queiroz'
p846
S'/player/carlos-queiroz'
p847
sS'Pablo Ricchetti'
p848
S'/player/pablo-ricchetti'
p849
sS'John Pulido'
p850
S'/player/john-pulido'
p851
sS'Nery Castillo'
p852
S'/player/nery-castillo'
p853
sS'Kevin East'
p854
S'/player/kevin-east'
p855
sS'Brian Nielsen'
p856
S'/player/brian-nielsen'
p857
sS'Roberto Mina'
p858
S'/player/roberto-mina'
p859
sS'Adam Williamson'
p860
S'/player/adam-williamson'
p861
sS'Joseph Nane'
p862
S'/player/joseph-nane'
p863
sS'Zach Loyd'
p864
S'/player/zach-loyd'
p865
sS'Kyle Patterson'
p866
S'/player/kyle-patterson'
p867
sS'Chuck Codd'
p868
S'/player/chuck-codd'
p869
sS'Gustavo Cabrera'
p870
S'/player/gustavo-cabrera'
p871
sS'Sam Reynolds'
p872
S'/player/sam-reynolds'
p873
sS'Leonel Alvarez'
p874
S'/player/leonel-alvarez'
p875
sS'Krzysztof Krol'
p876
S'/player/krzysztof-krol'
p877
sS'Robert Gansler'
p878
S'/player/robert-gansler'
p879
sS'Juan Suarez'
p880
S'/player/juan-suarez'
p881
sS'Stephen deRoux'
p882
S'/player/stephen-deroux'
p883
sS'Andrew Terris'
p884
S'/player/andrew-terris'
p885
sS'Anthony Obodai'
p886
S'/player/anthony-obodai'
p887
sS'Thabiso Khumalo'
p888
S'/player/thabiso-khumalo'
p889
sS'Perry Van Der Beck'
p890
S'/player/perry-van-der-beck'
p891
sS'Sheldon Thomas'
p892
S'/player/sheldon-thomas'
p893
sS'Ricardo Virtuoso'
p894
S'/player/ricardo-virtuoso'
p895
sS'Chris Henderson'
p896
S'/player/chris-henderson'
p897
sS'Rudi Dil Gullit'
p898
S'/player/rudi-dil-gullit'
p899
sS'Luke Sassano'
p900
S'/player/luke-sassano'
p901
sS'Stuart Holden'
p902
S'/player/stuart-holden'
p903
sS'Omar Cummings'
p904
S'/player/omar-cummings'
p905
sS'Charles Alamo'
p906
S'/player/charles-alamo'
p907
sS'Tim Ward'
p908
S'/player/tim-ward'
p909
sS'Jose Retiz'
p910
S'/player/jose-retiz'
p911
sS'Brad Knighton'
p912
S'/player/brad-knighton'
p913
sS'Dominic Oduro'
p914
S'/player/dominic-oduro'
p915
sS'Tim Melia'
p916
S'/player/tim-melia'
p917
sS'Kevin Souter'
p918
S'/player/kevin-souter'
p919
sS'Danny Barber'
p920
S'/player/danny-barber'
p921
sS'Milton Nunez'
p922
S'/player/milton-nunez'
p923
sS'David Monsalve'
p924
S'/player/david-monsalve'
p925
sS'Alan Gordon'
p926
S'/player/alan-gordon'
p927
sS'Adam Acosta'
p928
S'/player/adam-acosta'
p929
sS'Francis Okaroh'
p930
S'/player/francis-okaroh'
p931
sS'Martin Machon'
p932
S'/player/martin-machon'
p933
sS'Andrew Gregor'
p934
S'/player/andrew-gregor'
p935
sS'Matt Pickens'
p936
S'/player/matt-pickens'
p937
sS'Marcelo Herrera'
p938
S'/player/marcelo-herrera'
p939
sS'Jesus Ochoa'
p940
S'/player/jesus-ochoa'
p941
sS'Bobby Houghton'
p942
S'/player/bobby-houghton'
p943
sS'Scott Powers'
p944
S'/player/scott-powers'
p945
sS'Will Johnson'
p946
S'/player/will-johnson'
p947
sS'Facundo Diz'
p948
S'/player/facundo-diz'
p949
sS'Darrius Barnes'
p950
S'/player/darrius-barnes'
p951
sS'Roger Espinoza'
p952
S'/player/roger-espinoza'
p953
sS'Cle Kooiman'
p954
S'/player/cle-kooiman'
p955
sS'Jorge Castaneda'
p956
S'/player/jorge-castaneda'
p957
sS'Lance Key'
p958
S'/player/lance-key'
p959
sS'Cristian da Silva'
p960
S'/player/cristian-da-silva'
p961
sS'Jeff Causey'
p962
S'/player/jeff-causey'
p963
sS'Logan Pause'
p964
S'/player/logan-pause'
p965
sS'Tristan Bowen'
p966
S'/player/tristan-bowen'
p967
sS'Stephen King'
p968
S'/player/stephen-king'
p969
sS'Aaron Godbolt'
p970
S'/player/aaron-godbolt'
p971
sS'Jeff DiMaria'
p972
S'/player/jeff-dimaria'
p973
sS'Carlos Ledesma'
p974
S'/player/carlos-ledesma'
p975
sS'Juan Forchetti'
p976
S'/player/juan-forchetti'
p977
sS'Gary Sullivan'
p978
S'/player/gary-sullivan'
p979
sS'Miguel Saavedra'
p980
S'/player/miguel-saavedra'
p981
sS'Gonzalo Peralta'
p982
S'/player/gonzalo-peralta'
p983
sS'Jafet Soto'
p984
S'/player/jafet-soto'
p985
sS'Eduardo Hurtado'
p986
S'/player/eduardo-hurtado'
p987
sS'George Josten'
p988
S'/player/george-josten'
p989
sS'Josh Wolff'
p990
S'/player/josh-wolff'
p991
sS'Richard Sharpe'
p992
S'/player/richard-sharpe'
p993
sS'Dilly Duka'
p994
S'/player/dilly-duka'
p995
sS'Travis Roy'
p996
S'/player/travis-roy'
p997
sS'Ryan Suarez'
p998
S'/player/ryan-suarez'
p999
sS'Julian Valentin'
p1000
S'/player/julian-valentin'
p1001
sS'Mike Littman'
p1002
S'/player/mike-littman'
p1003
sS'Julian de Guzman'
p1004
S'/player/julian-de-guzman'
p1005
sS'Marcos Gonzalez'
p1006
S'/player/marcos-gonzalez'
p1007
sS'Nick Van Sicklen'
p1008
S'/player/nick-van-sicklen'
p1009
sS'Franco Caraccio'
p1010
S'/player/franco-caraccio'
p1011
sS'William Sleeth'
p1012
S'/player/william-sleeth'
p1013
sS'Davy Arnaud'
p1014
S'/player/davy-arnaud'
p1015
sS'Mikel Arce'
p1016
S'/player/mikel-arce'
p1017
sS'Andre Nunley'
p1018
S'/player/andre-nunley'
p1019
sS'Ariel Graziani'
p1020
S'/player/ariel-graziani'
p1021
sS'Carey Talley'
p1022
S'/player/carey-talley'
p1023
sS'Michael Lookingland'
p1024
S'/player/michael-lookingland'
p1025
sS'Sergio Miguez'
p1026
S'/player/sergio-miguez'
p1027
sS'Danny Earls'
p1028
S'/player/danny-earls'
p1029
sS'Bill Andracki'
p1030
S'/player/bill-andracki'
p1031
sS'Chris Schuler'
p1032
S'/player/chris-schuler'
p1033
sS'Frank Sanfilippo'
p1034
S'/player/frank-sanfilippo'
p1035
sS'Martin Munnelly'
p1036
S'/player/martin-munnelly'
p1037
sS'Dan Stratford'
p1038
S'/player/dan-stratford'
p1039
sS'Michael Piserchio'
p1040
S'/player/michael-piserchio'
p1041
sS'Dan Benton'
p1042
S'/player/dan-benton'
p1043
sS'Jordan Harvey'
p1044
S'/player/jordan-harvey'
p1045
sS'Justin Hughes'
p1046
S'/player/justin-hughes'
p1047
sS'Ihor Dotsenko'
p1048
S'/player/ihor-dotsenko'
p1049
sS'Jake Dancy'
p1050
S'/player/jake-dancy'
p1051
sS'Giancarlo Maldonado'
p1052
S'/player/giancarlo-maldonado'
p1053
sS'Alberto Naveda'
p1054
S'/player/alberto-naveda'
p1055
sS'Trevor Perea'
p1056
S'/player/trevor-perea'
p1057
sS'Jeremy Barlow'
p1058
S'/player/jeremy-barlow'
p1059
sS'Steve Morrow'
p1060
S'/player/steve-morrow'
p1061
sS'Casey Schmidt'
p1062
S'/player/casey-schmidt'
p1063
sS'Zach Scott'
p1064
S'/player/zach-scott'
p1065
sS'Marcos Romaneiro'
p1066
S'/player/marcos-romaneiro'
p1067
sS'Troy Perkins'
p1068
S'/player/troy-perkins'
p1069
sS'Yuri Lavrinenko'
p1070
S'/player/yuri-lavrinenko'
p1071
sS'Noah Palmer'
p1072
S'/player/noah-palmer'
p1073
sS'Alfonso Mondelo'
p1074
S'/player/alfonso-mondelo'
p1075
sS'Edward Johnson'
p1076
S'/player/edward-johnson'
p1077
sS'Lovel Palmer'
p1078
S'/player/lovel-palmer'
p1079
sS'Sasha Gotsmanov'
p1080
S'/player/sasha-gotsmanov'
p1081
sS'Diphetogo Selolwane'
p1082
S'/player/diphetogo-selolwane'
p1083
sS'Matthew Mbuta'
p1084
S'/player/matthew-mbuta'
p1085
sS'Tomer Chencinski'
p1086
S'/player/tomer-chencinski'
p1087
sS'Freddy Garcia'
p1088
S'/player/freddy-garcia'
p1089
sS'Kenny Schoeni'
p1090
S'/player/kenny-schoeni'
p1091
sS'Taly Goode'
p1092
S'/player/taly-goode'
p1093
sS'Jarrod Smith'
p1094
S'/player/jarrod-smith'
p1095
sS'Refik Sabanadzovic'
p1096
S'/player/refik-sabanadzovic'
p1097
sS'Chase Hilgenbrinck'
p1098
S'/player/chase-hilgenbrinck'
p1099
sS'John DeBrito'
p1100
S'/player/john-debrito'
p1101
sS'Scott Budnick'
p1102
S'/player/scott-budnick'
p1103
sS'William Sunsing'
p1104
S'/player/william-sunsing'
p1105
sS'Kurt Morsink'
p1106
S'/player/kurt-morsink'
p1107
sS'Alberto Celades'
p1108
S'/player/alberto-celades'
p1109
sS'Alex Nimo'
p1110
S'/player/alex-nimo'
p1111
sS'Rafael Gomes'
p1112
S'/player/rafael-gomes'
p1113
sS'Brian Bliss'
p1114
S'/player/brian-bliss'
p1115
sS'Eric Lewis'
p1116
S'/player/eric-lewis'
p1117
sS'Julian Nash'
p1118
S'/player/julian-nash'
p1119
sS'Jani Galik'
p1120
S'/player/jani-galik'
p1121
sS'Martin Morales'
p1122
S'/player/martin-morales'
p1123
sS'Steve Pittman'
p1124
S'/player/steve-pittman'
p1125
sS'Steven Beitashour'
p1126
S'/player/steven-beitashour'
p1127
sS'Shaun Kalnasy'
p1128
S'/player/shaun-kalnasy'
p1129
sS'Kevin Ara'
p1130
S'/player/kevin-ara'
p1131
sS'Ryan Edwards'
p1132
S'/player/ryan-edwards'
p1133
sS'Ricardo Iribarren'
p1134
S'/player/ricardo-iribarren'
p1135
sS'Roland Aguilera'
p1136
S'/player/roland-aguilera'
p1137
sS'Dave Dir'
p1138
S'/player/dave-dir'
p1139
sS'Khari Stephenson'
p1140
S'/player/khari-stephenson'
p1141
sS'Gabe Garcia'
p1142
S'/player/gabe-garcia'
p1143
sS'Michael Umana'
p1144
S'/player/michael-umana'
p1145
sS'Chris Armas'
p1146
S'/player/chris-armas'
p1147
sS'Mike Ammann'
p1148
S'/player/mike-ammann'
p1149
sS'Ryan Bertrand'
p1150
S'/player/ryan-bertrand'
p1151
sS'James Riley'
p1152
S'/player/james-riley'
p1153
sS'Richard Gough'
p1154
S'/player/richard-gough'
p1155
sS'Edwin Gorter'
p1156
S'/player/edwin-gorter'
p1157
sS'Thomas Dooley'
p1158
S'/player/thomas-dooley'
p1159
sS'Brandon Moss'
p1160
S'/player/brandon-moss'
p1161
sS'Zach Kingsley'
p1162
S'/player/zach-kingsley'
p1163
sS'Guillermo Ramirez'
p1164
S'/player/guillermo-ramirez'
p1165
sS'Alejandro Moreno'
p1166
S'/player/alejandro-moreno'
p1167
sS'Vitalis Takawira'
p1168
S'/player/vitalis-takawira'
p1169
sS'Paul Grafer'
p1170
S'/player/paul-grafer'
p1171
sS'Pete Marino'
p1172
S'/player/pete-marino'
p1173
sS'Kyle Helton'
p1174
S'/player/kyle-helton'
p1175
sS'Eric Chaisongkram'
p1176
S'/player/eric-chaisongkram'
p1177
sS'Ted Gillen'
p1178
S'/player/ted-gillen'
p1179
sS'John Diffley'
p1180
S'/player/john-diffley'
p1181
sS'Gonzalo Martinez'
p1182
S'/player/gonzalo-martinez'
p1183
sS'Andrew Wiedeman'
p1184
S'/player/andrew-wiedeman'
p1185
sS'Musa Shannon'
p1186
S'/player/musa-shannon'
p1187
sS'Connally Edozien'
p1188
S'/player/connally-edozien'
p1189
sS'Jose Vasquez'
p1190
S'/player/jose-vasquez'
p1191
sS'Alan Prampin'
p1192
S'/player/alan-prampin'
p1193
sS'Leandro de Oliveira'
p1194
S'/player/leandro-de-oliveira'
p1195
sS'Ross LaBauex'
p1196
S'/player/ross-labauex'
p1197
sS'Othaniel Yanez'
p1198
S'/player/othaniel-yanez'
p1199
sS'Ian Joy'
p1200
S'/player/ian-joy'
p1201
sS'Gabe Gala'
p1202
S'/player/gabe-gala'
p1203
sS'John Carver'
p1204
S'/player/john-carver'
p1205
sS'Emilio Renteria'
p1206
S'/player/emilio-renteria'
p1207
sS'Drew Helm'
p1208
S'/player/drew-helm'
p1209
sS'Michael Ueltschey'
p1210
S'/player/michael-ueltschey'
p1211
sS'Kirk Wilson'
p1212
S'/player/kirk-wilson'
p1213
sS'Brandon Pollard'
p1214
S'/player/brandon-pollard'
p1215
sS'Jean Alexandre'
p1216
S'/player/jean-alexandre'
p1217
sS'Nino Da Silva'
p1218
S'/player/nino-da-silva'
p1219
sS'Gus Kartes'
p1220
S'/player/gus-kartes'
p1221
sS'Matias Cordoba'
p1222
S'/player/matias-cordoba'
p1223
sS'Nick Armington'
p1224
S'/player/nick-armington'
p1225
sS'Lawson Vaughn'
p1226
S'/player/lawson-vaughn'
p1227
sS'Emmanuel Osei'
p1228
S'/player/emmanuel-osei'
p1229
sS'Scott Vermillion'
p1230
S'/player/scott-vermillion'
p1231
sS'Louis Ken-Kwofie'
p1232
S'/player/louis-ken-kwofie'
p1233
sS'Miklos Molnar'
p1234
S'/player/miklos-molnar'
p1235
sS'Matt Nyman'
p1236
S'/player/matt-nyman'
p1237
sS'Ugo Ihemelu'
p1238
S'/player/ugo-ihemelu'
p1239
sS'Eric Dade'
p1240
S'/player/eric-dade'
p1241
sS'McKinley Tennyson'
p1242
S'/player/mckinley-tennyson'
p1243
sS'Christian Jimenez'
p1244
S'/player/christian-jimenez'
p1245
sS'Marcus Storey'
p1246
S'/player/marcus-storey'
p1247
sS'Luis Hernandez'
p1248
S'/player/luis-hernandez'
p1249
sS'Steve Guppy'
p1250
S'/player/steve-guppy'
p1251
sS'Cesar Alvarado'
p1252
S'/player/cesar-alvarado'
p1253
sS'Rhett Harty'
p1254
S'/player/rhett-harty'
p1255
sS'Darren Huckerby'
p1256
S'/player/darren-huckerby'
p1257
sS'Roman Kosecki'
p1258
S'/player/roman-kosecki'
p1259
sS'Mirsad Huseinovic'
p1260
S'/player/mirsad-huseinovic'
p1261
sS'Rich Asante'
p1262
S'/player/rich-asante'
p1263
sS'Sunil Chhetri'
p1264
S'/player/sunil-chhetri'
p1265
sS'Kevin Wylie'
p1266
S'/player/kevin-wylie'
p1267
sS'Said Fazlagic'
p1268
S'/player/said-fazlagic'
p1269
sS'Stephen Keel'
p1270
S'/player/stephen-keel'
p1271
sS'Stephen Herdsman'
p1272
S'/player/stephen-herdsman'
p1273
sS'Rob Jachym'
p1274
S'/player/rob-jachym'
p1275
sS'Ray Burse'
p1276
S'/player/ray-burse'
p1277
sS'Carlos Pavon'
p1278
S'/player/carlos-pavon'
p1279
sS'Carlos Alberto Parreira'
p1280
S'/player/carlos-alberto-parreira'
p1281
sS'Dusty Hudock'
p1282
S'/player/dusty-hudock'
p1283
sS'Dennis Ludwig'
p1284
S'/player/dennis-ludwig'
p1285
sS'Adam Eyre'
p1286
S'/player/adam-eyre'
p1287
sS'Kyle Davies'
p1288
S'/player/kyle-davies'
p1289
sS'Kosuke Kimura'
p1290
S'/player/kosuke-kimura'
p1291
sS'Andy Herron'
p1292
S'/player/andy-herron'
p1293
sS'Scott Pearson'
p1294
S'/player/scott-pearson'
p1295
sS'Stephane Auvray'
p1296
S'/player/stephane-auvray'
p1297
sS'Erik Ustruck'
p1298
S'/player/erik-ustruck'
p1299
sS'Eduardo Espinoza'
p1300
S'/player/eduardo-espinoza'
p1301
sS'Andy Dorman'
p1302
S'/player/andy-dorman'
p1303
sS'Esmundo Rodriguez'
p1304
S'/player/esmundo-rodriguez'
p1305
sS'Dominik Jakubek'
p1306
S'/player/dominik-jakubek'
p1307
sS'Matt Nelson'
p1308
S'/player/matt-nelson'
p1309
sS'Bakary Soumare'
p1310
S'/player/bakary-soumare'
p1311
sS'Mehdi Ballouchy'
p1312
S'/player/mehdi-ballouchy'
p1313
sS'David Stokes'
p1314
S'/player/david-stokes'
p1315
sS'Manuel Carou'
p1316
S'/player/manuel-carou'
p1317
sS'Tony Sanneh'
p1318
S'/player/tony-sanneh'
p1319
sS'Mark Lisi'
p1320
S'/player/mark-lisi'
p1321
sS'Cornell Glen'
p1322
S'/player/cornell-glen'
p1323
sS'John Wilson'
p1324
S'/player/john-wilson'
p1325
sS'Seth Stammler'
p1326
S'/player/seth-stammler'
p1327
sS'Chris Eylander'
p1328
S'/player/chris-eylander'
p1329
sS'Matthew Britner'
p1330
S'/player/matthew-britner'
p1331
sS'Steve Purdy'
p1332
S'/player/steve-purdy'
p1333
sS'Kwame Watson-Siriboe'
p1334
S'/player/kwame-watson-siriboe'
p1335
sS'Ryan Johnson'
p1336
S'/player/ryan-johnson'
p1337
sS'Matt Reis'
p1338
S'/player/matt-reis'
p1339
sS'Jordan Russolillo'
p1340
S'/player/jordan-russolillo'
p1341
sS'Robbie Rogers'
p1342
S'/player/robbie-rogers'
p1343
sS'Marko Perovic'
p1344
S'/player/marko-perovic'
p1345
sS'Thomas McManus'
p1346
S'/player/thomas-mcmanus'
p1347
sS'Mike Lapper'
p1348
S'/player/mike-lapper'
p1349
sS'Carlos Marinelli'
p1350
S'/player/carlos-marinelli'
p1351
sS'Anders Limpar'
p1352
S'/player/anders-limpar'
p1353
sS'Jose Luis Morales'
p1354
S'/player/jose-luis-morales'
p1355
sS'Antonio Martinez'
p1356
S'/player/antonio-martinez'
p1357
sS'Tom Lips'
p1358
S'/player/tom-lips'
p1359
sS'Rene Corona'
p1360
S'/player/rene-corona'
p1361
sS'Brian Dunseth'
p1362
S'/player/brian-dunseth'
p1363
sS'Steve Sampson'
p1364
S'/player/steve-sampson'
p1365
sS'Alfredo Pacheco'
p1366
S'/player/alfredo-pacheco'
p1367
sS'Marvin Quijano'
p1368
S'/player/marvin-quijano'
p1369
sS'Edson Buddle'
p1370
S'/player/edson-buddle'
p1371
sS'Thomas Rongen'
p1372
S'/player/thomas-rongen'
p1373
sS'Rusty Pierce'
p1374
S'/player/rusty-pierce'
p1375
sS'Bobby Convey'
p1376
S'/player/bobby-convey'
p1377
sS'Kurt Kelley'
p1378
S'/player/kurt-kelley'
p1379
sS'Clarence Goodson'
p1380
S'/player/clarence-goodson'
p1381
sS'Damani Ralph'
p1382
S'/player/damani-ralph'
p1383
sS'Andrew Boyens'
p1384
S'/player/andrew-boyens'
p1385
sS'Johnny Torres'
p1386
S'/player/johnny-torres'
p1387
sS'Sal Caccavale'
p1388
S'/player/sal-caccavale'
p1389
sS'Jack Stewart'
p1390
S'/player/jack-stewart'
p1391
sS'Julius James'
p1392
S'/player/julius-james'
p1393
sS'Michael Emenalo'
p1394
S'/player/michael-emenalo'
p1395
sS'Ryan Kelly'
p1396
S'/player/ryan-kelly'
p1397
sS'Chad Ashton'
p1398
S'/player/chad-ashton'
p1399
sS'Hristo Stoitchkov'
p1400
S'/player/hristo-stoitchkov'
p1401
sS'John Ball'
p1402
S'/player/john-ball'
p1403
sS'Jordan Cila'
p1404
S'/player/jordan-cila'
p1405
sS'Pablo Hernandez'
p1406
S'/player/pablo-hernandez'
p1407
sS'Sam Forko'
p1408
S'/player/sam-forko'
p1409
sS'Seth Trembly'
p1410
S'/player/seth-trembly'
p1411
sS'Miguel Montano'
p1412
S'/player/miguel-montano'
p1413
sS'Lothar Osiander'
p1414
S'/player/lothar-osiander'
p1415
sS'Lance Watson'
p1416
S'/player/lance-watson'
p1417
sS'Paul Schneider'
p1418
S'/player/paul-schneider'
p1419
sS'Robert Ukrop'
p1420
S'/player/robert-ukrop'
p1421
sS'Jason Thompson'
p1422
S'/player/jason-thompson'
p1423
sS'Dionysus Sebwe'
p1424
S'/player/dionysus-sebwe'
p1425
sS'Fernando Ortiz-Solis'
p1426
S'/player/fernando-ortiz-solis'
p1427
sS'Eder Robles'
p1428
S'/player/eder-robles'
p1429
sS'Ronald Cerritos'
p1430
S'/player/ronald-cerritos'
p1431
sS'Mike Jeffries'
p1432
S'/player/mike-jeffries'
p1433
sS'Abdul Thompson Conteh'
p1434
S'/player/abdul-thompson-conteh'
p1435
sS'Hugh MacDonald'
p1436
S'/player/hugh-macdonald'
p1437
sS'Francisco Uribe'
p1438
S'/player/francisco-uribe'
p1439
sS'Sasa Curcic'
p1440
S'/player/sasa-curcic'
p1441
sS'Mile Miovac'
p1442
S'/player/mile-miovac'
p1443
sS'Ernest Inneh'
p1444
S'/player/ernest-inneh'
p1445
sS'Chance Myers'
p1446
S'/player/chance-myers'
p1447
sS'Igor Kostrov'
p1448
S'/player/igor-kostrov'
p1449
sS'Andrew Restrepo'
p1450
S'/player/andrew-restrepo'
p1451
sS'Geoff Aunger'
p1452
S'/player/geoff-aunger'
p1453
sS'Diego Viera'
p1454
S'/player/diego-viera'
p1455
sS'Bojan Stepanovic'
p1456
S'/player/bojan-stepanovic'
p1457
sS'Kenny Mansally'
p1458
S'/player/kenny-mansally'
p1459
sS'Alec Dufty'
p1460
S'/player/alec-dufty'
p1461
sS'John Wilmar Perez'
p1462
S'/player/john-wilmar-perez'
p1463
sS'Mike Graczyk'
p1464
S'/player/mike-graczyk'
p1465
sS'Altimont Butler'
p1466
S'/player/altimont-butler'
p1467
sS'Ricardo Alves Pereira'
p1468
S'/player/ricardo-alves-pereira'
p1469
sS'Michael Nugent'
p1470
S'/player/michael-nugent'
p1471
sS'Sebastian Rozental'
p1472
S'/player/sebastian-rozental'
p1473
sS'Jeff Rigby'
p1474
S'/player/jeff-rigby'
p1475
sS'Craig Demmin'
p1476
S'/player/craig-demmin'
p1477
sS'Tahj Jakins'
p1478
S'/player/tahj-jakins'
p1479
sS'Devin Barclay'
p1480
S'/player/devin-barclay'
p1481
sS'Francis Stapleton'
p1482
S'/player/francis-stapleton'
p1483
sS'Sacha Kljestan'
p1484
S'/player/sacha-kljestan'
p1485
sS'Raphael Wicky'
p1486
S'/player/raphael-wicky'
p1487
sS'Willian Oliveira'
p1488
S'/player/willian-oliveira'
p1489
sS'Kalin Bankov'
p1490
S'/player/kalin-bankov'
p1491
sS'Milton Reyes'
p1492
S'/player/milton-reyes'
p1493
sS'Jeff Cassar'
p1494
S'/player/jeff-cassar'
p1495
sS'Justin Moose'
p1496
S'/player/justin-moose'
p1497
sS'Christopher Sullivan'
p1498
S'/player/christopher-sullivan'
p1499
sS'Colin Clark'
p1500
S'/player/colin-clark'
p1501
sS'Matthew Crawford'
p1502
S'/player/matthew-crawford'
p1503
sS'Jose Galvan'
p1504
S'/player/jose-galvan'
p1505
sS'Eddie Lewis'
p1506
S'/player/eddie-lewis'
p1507
sS'Brandon Tyler'
p1508
S'/player/brandon-tyler'
p1509
sS'Alvaro Fernandez'
p1510
S'/player/alvaro-fernandez'
p1511
sS'Matt Groenwald'
p1512
S'/player/matt-groenwald'
p1513
sS'Caleb Patterson-Sewell'
p1514
S'/player/caleb-patterson-sewell'
p1515
sS'Andrew Kartunen'
p1516
S'/player/andrew-kartunen'
p1517
sS'David Nakhid'
p1518
S'/player/david-nakhid'
p1519
sS'Jeremy Oetman'
p1520
S'/player/jeremy-oetman'
p1521
sS'Bryheem Hancock'
p1522
S'/player/bryheem-hancock'
p1523
sS'Rob Smith'
p1524
S'/player/rob-smith'
p1525
sS'Galin Ivanov'
p1526
S'/player/galin-ivanov'
p1527
sS'Shalrie Joseph'
p1528
S'/player/shalrie-joseph'
p1529
sS'Ben Olsen'
p1530
S'/player/ben-olsen'
p1531
sS'Chris Loftus'
p1532
S'/player/chris-loftus'
p1533
sS'Sam George'
p1534
S'/player/sam-george'
p1535
sS'Marco Velez'
p1536
S'/player/marco-velez'
p1537
sS'Adam Ruud'
p1538
S'/player/adam-ruud'
p1539
sS'Ibrahim Koroma'
p1540
S'/player/ibrahim-koroma'
p1541
sS'Israel Sesay'
p1542
S'/player/israel-sesay'
p1543
sS'Ray Goodlett'
p1544
S'/player/ray-goodlett'
p1545
sS'Nick Hatzke'
p1546
S'/player/nick-hatzke'
p1547
sS'Henry Zambrano'
p1548
S'/player/henry-zambrano'
p1549
sS'Knox Cameron'
p1550
S'/player/knox-cameron'
p1551
sS'Kevin Coye'
p1552
S'/player/kevin-coye'
p1553
sS'Brad Davis'
p1554
S'/player/brad-davis'
p1555
sS' Leonardo'
p1556
S'/player/-leonardo'
p1557
sS'Ricardo Clark'
p1558
S'/player/ricardo-clark'
p1559
sS'Johnny Alcaraz'
p1560
S'/player/johnny-alcaraz'
p1561
sS'Ike Udeh'
p1562
S'/player/ike-udeh'
p1563
sS'Dan Kennedy'
p1564
S'/player/dan-kennedy'
p1565
sS'Todd Dunivant'
p1566
S'/player/todd-dunivant'
p1567
sS'Nicolas Hernandez'
p1568
S'/player/nicolas-hernandez'
p1569
sS'Armando Begines'
p1570
S'/player/armando-begines'
p1571
sS'Nathan Tisam'
p1572
S'/player/nathan-tisam'
p1573
sS'Michael Fucito'
p1574
S'/player/michael-fucito'
p1575
sS'Victor Ulloa'
p1576
S'/player/victor-ulloa'
p1577
sS'Sergio Garcia'
p1578
S'/player/sergio-garcia'
p1579
sS'Alecko Eskandarian'
p1580
S'/player/alecko-eskandarian'
p1581
sS'Wellington Sanchez'
p1582
S'/player/wellington-sanchez'
p1583
sS'Steve Bernal'
p1584
S'/player/steve-bernal'
p1585
sS"Dayton O'Brien"
p1586
S'/player/dayton-obrien'
p1587
sS'Sainey Touray'
p1588
S'/player/sainey-touray'
p1589
sS'Vicente Figueroa'
p1590
S'/player/vicente-figueroa'
p1591
sS'Daniel Woolard'
p1592
S'/player/daniel-woolard'
p1593
sS'Mickey Kydes'
p1594
S'/player/mickey-kydes'
p1595
sS'Brian Quinn'
p1596
S'/player/brian-quinn'
p1597
sS'Miguel Gonzalez'
p1598
S'/player/miguel-gonzalez'
p1599
sS'Neil Hislop'
p1600
S'/player/neil-hislop'
p1601
sS'Joey Gjertsen'
p1602
S'/player/joey-gjertsen'
p1603
sS'Ronnie Pascale'
p1604
S'/player/ronnie-pascale'
p1605
sS'Johann Smith'
p1606
S'/player/johann-smith'
p1607
sS'Dmitri Strunkin'
p1608
S'/player/dmitri-strunkin'
p1609
sS'Conor Casey'
p1610
S'/player/conor-casey'
p1611
sS'Zak Ibsen'
p1612
S'/player/zak-ibsen'
p1613
sS'Rivers Guthrie'
p1614
S'/player/rivers-guthrie'
p1615
sS'Sam Cronin'
p1616
S'/player/sam-cronin'
p1617
sS'Jeff Curtin'
p1618
S'/player/jeff-curtin'
p1619
sS'Zizi Roberts'
p1620
S'/player/zizi-roberts'
p1621
sS'Tomasz Wygonik'
p1622
S'/player/tomasz-wygonik'
p1623
sS'Toni Stahl'
p1624
S'/player/toni-stahl'
p1625
sS'Wilman Conde'
p1626
S'/player/wilman-conde'
p1627
sS'Steve Klein'
p1628
S'/player/steve-klein'
p1629
sS'Steve Cronin'
p1630
S'/player/steve-cronin'
p1631
sS'Ian Russell'
p1632
S'/player/ian-russell'
p1633
sS'Jose Carvallo'
p1634
S'/player/jose-carvallo'
p1635
sS'Ben Hunter'
p1636
S'/player/ben-hunter'
p1637
sS'Brian Maisonneuve'
p1638
S'/player/brian-maisonneuve'
p1639
sS'Michael Kraus'
p1640
S'/player/michael-kraus'
p1641
sS'Edgar Bartolomeu'
p1642
S'/player/edgar-bartolomeu'
p1643
sS'Zachary Wells'
p1644
S'/player/zachary-wells'
p1645
sS'Winston Griffiths'
p1646
S'/player/winston-griffiths'
p1647
sS'Byron Foss'
p1648
S'/player/byron-foss'
p1649
sS'Anthony Latronica'
p1650
S'/player/anthony-latronica'
p1651
sS'Andreas Herzog'
p1652
S'/player/andreas-herzog'
p1653
sS'Dustin Sheppard'
p1654
S'/player/dustin-sheppard'
p1655
sS'Alex Zotinca'
p1656
S'/player/alex-zotinca'
p1657
sS'Eric Kvello'
p1658
S'/player/eric-kvello'
p1659
sS'Kevin Goldthwaite'
p1660
S'/player/kevin-goldthwaite'
p1661
sS'Igor Simutenkov'
p1662
S'/player/igor-simutenkov'
p1663
sS'Chris Aloisi'
p1664
S'/player/chris-aloisi'
p1665
sS'Deris Umanzor'
p1666
S'/player/deris-umanzor'
p1667
sS'Aitor Karanka'
p1668
S'/player/aitor-karanka'
p1669
sS'Curtis Spiteri'
p1670
S'/player/curtis-spiteri'
p1671
sS'Ryan Nelsen'
p1672
S'/player/ryan-nelsen'
p1673
sS'Jonathan Bornstein'
p1674
S'/player/jonathan-bornstein'
p1675
sS'Greg Sutton'
p1676
S'/player/greg-sutton'
p1677
sS'Marcelo Carrera'
p1678
S'/player/marcelo-carrera'
p1679
sS'Chris Konopka'
p1680
S'/player/chris-konopka'
p1681
sS'Willy Guadarrama'
p1682
S'/player/willy-guadarrama'
p1683
sS'Zak Boggs'
p1684
S'/player/zak-boggs'
p1685
sS'Joe-Max Moore'
p1686
S'/player/joe-max-moore'
p1687
sS'Nick Downing'
p1688
S'/player/nick-downing'
p1689
sS'Jean Harbor'
p1690
S'/player/jean-harbor'
p1691
sS'Eugene Sepuya'
p1692
S'/player/eugene-sepuya'
p1693
sS'Andrew Weber'
p1694
S'/player/andrew-weber'
p1695
sS'Lider Marmol'
p1696
S'/player/lider-marmol'
p1697
sS'Antonio Gilmar'
p1698
S'/player/antonio-gilmar'
p1699
sS'Alejandro Farias'
p1700
S'/player/alejandro-farias'
p1701
sS'Carlos Hermosillo'
p1702
S'/player/carlos-hermosillo'
p1703
sS'Scott Coufal'
p1704
S'/player/scott-coufal'
p1705
sS'Dejair Ferreira'
p1706
S'/player/dejair-ferreira'
p1707
sS'Martin Klinger'
p1708
S'/player/martin-klinger'
p1709
sS'Carlos Valderrama'
p1710
S'/player/carlos-valderrama'
p1711
sS'Francisco Gomez'
p1712
S'/player/francisco-gomez'
p1713
sS'Jamel Mitchell'
p1714
S'/player/jamel-mitchell'
p1715
sS'Taylor Twellman'
p1716
S'/player/taylor-twellman'
p1717
sS'Eloy Colombano'
p1718
S'/player/eloy-colombano'
p1719
sS'Davide Somma'
p1720
S'/player/davide-somma'
p1721
sS'Nick Walls'
p1722
S'/player/nick-walls'
p1723
sS'Taylor Graham'
p1724
S'/player/taylor-graham'
p1725
sS'Paul Bravo'
p1726
S'/player/paul-bravo'
p1727
sS'Braeden Cloutier'
p1728
S'/player/braeden-cloutier'
p1729
sS'Collin Samuel'
p1730
S'/player/collin-samuel'
p1731
sS'Nkosinathi Nhleko'
p1732
S'/player/nkosinathi-nhleko'
p1733
sS'Kevin Mesa'
p1734
S'/player/kevin-mesa'
p1735
sS'Miguel Canizalez'
p1736
S'/player/miguel-canizalez'
p1737
sS'Robby Fulton'
p1738
S'/player/robby-fulton'
p1739
sS'Paulo Nagamura'
p1740
S'/player/paulo-nagamura'
p1741
sS'James Twellman'
p1742
S'/player/james-twellman'
p1743
sS'Johnny Morton'
p1744
S'/player/johnny-morton'
p1745
sS'Raphael Cox'
p1746
S'/player/raphael-cox'
p1747
sS'Robert Thompson'
p1748
S'/player/robert-thompson'
p1749
sS'Chris Brunt'
p1750
S'/player/chris-brunt'
p1751
sS'John Kerr'
p1752
S'/player/john-kerr'
p1753
sS'Andrew Shue'
p1754
S'/player/andrew-shue'
p1755
sS'Milos Kocic'
p1756
S'/player/milos-kocic'
p1757
sS'Walter Zenga'
p1758
S'/player/walter-zenga'
p1759
sS'Paul Young'
p1760
S'/player/paul-young'
p1761
sS'Gary Flood'
p1762
S'/player/gary-flood'
p1763
sS'Amado Guevara'
p1764
S'/player/amado-guevara'
p1765
sS'Tally Hall'
p1766
S'/player/tally-hall'
p1767
sS'Daouda Kante'
p1768
S'/player/daouda-kante'
p1769
sS'Dahir Mohammed'
p1770
S'/player/dahir-mohammed'
p1771
sS'Michael Gavin'
p1772
S'/player/michael-gavin'
p1773
sS'Stefan Frei'
p1774
S'/player/stefan-frei'
p1775
sS'Juan Pablo Angel'
p1776
S'/player/juan-pablo-angel'
p1777
sS'Mike Slivinski'
p1778
S'/player/mike-slivinski'
p1779
sS"Leighton O'Brien"
p1780
S'/player/leighton-obrien'
p1781
sS'Irving Garcia'
p1782
S'/player/irving-garcia'
p1783
sS'Cam Weaver'
p1784
S'/player/cam-weaver'
p1785
sS'Joe Cannon'
p1786
S'/player/joe-cannon'
p1787
sS'Antonio Otero'
p1788
S'/player/antonio-otero'
p1789
sS'Eric Ebert'
p1790
S'/player/eric-ebert'
p1791
sS'Jonny Walker'
p1792
S'/player/jonny-walker'
p1793
sS'Marquis White'
p1794
S'/player/marquis-white'
p1795
sS'Brad Evans'
p1796
S'/player/brad-evans'
p1797
sS'Carlos Farias'
p1798
S'/player/carlos-farias'
p1799
sS'Andrew Daniels'
p1800
S'/player/andrew-daniels'
p1801
sS'A.J. DeLaGarza'
p1802
S'/player/aj-delagarza'
p1803
sS'Paulinho McLaren'
p1804
S'/player/paulinho-mclaren'
p1805
sS'Patrick Olalere'
p1806
S'/player/patrick-olalere'
p1807
sS'Edson Edward'
p1808
S'/player/edson-edward'
p1809
sS'Matthew Taylor'
p1810
S'/player/matthew-taylor'
p1811
sS'Chiquinho Conde'
p1812
S'/player/chiquinho-conde'
p1813
sS'Marco Rizi'
p1814
S'/player/marco-rizi'
p1815
sS"Danny O'Rourke"
p1816
S'/player/danny-orourke'
p1817
sS'Adam Smarte'
p1818
S'/player/adam-smarte'
p1819
sS'Sergio Galvan Rey'
p1820
S'/player/sergio-galvan-rey'
p1821
sS'Christian Castillo'
p1822
S'/player/christian-castillo'
p1823
sS'Robbie Findley'
p1824
S'/player/robbie-findley'
p1825
sS'Zion Renfrum'
p1826
S'/player/zion-renfrum'
p1827
sS'Alex dos Santos'
p1828
S'/player/alex-dos-santos'
p1829
sS'Quincy Amarikwa'
p1830
S'/player/quincy-amarikwa'
p1831
sS'Idris Ughiovhe'
p1832
S'/player/idris-ughiovhe'
p1833
sS'Rauwshan McKenzie'
p1834
S'/player/rauwshan-mckenzie'
p1835
sS'Craig Ziadie'
p1836
S'/player/craig-ziadie'
p1837
sS'Gregg Berhalter'
p1838
S'/player/gregg-berhalter'
p1839
sS'Carlos Bocanegra'
p1840
S'/player/carlos-bocanegra'
p1841
sS'Desmond Brooks'
p1842
S'/player/desmond-brooks'
p1843
sS'Todd Miller'
p1844
S'/player/todd-miller'
p1845
sS'Dan Calichman'
p1846
S'/player/dan-calichman'
p1847
sS'Matt Knowles'
p1848
S'/player/matt-knowles'
p1849
sS'Doug Warren'
p1850
S'/player/doug-warren'
p1851
sS'Michael Nsien'
p1852
S'/player/michael-nsien'
p1853
sS'Ivo Wortmann'
p1854
S'/player/ivo-wortmann'
p1855
sS'Andreas Maier'
p1856
S'/player/andreas-maier'
p1857
sS'Gerson Mayen'
p1858
S'/player/gerson-mayen'
p1859
sS'Brian Sebapole'
p1860
S'/player/brian-sebapole'
p1861
sS'Wade Barrett'
p1862
S'/player/wade-barrett'
p1863
sS'Mpho Moloi'
p1864
S'/player/mpho-moloi'
p1865
sS'Sasha Victorine'
p1866
S'/player/sasha-victorine'
p1867
sS'Ryan Futagaki'
p1868
S'/player/ryan-futagaki'
p1869
sS'Brek Shea'
p1870
S'/player/brek-shea'
p1871
sS'Tom Fitzgerald'
p1872
S'/player/tom-fitzgerald'
p1873
sS'Aaron King'
p1874
S'/player/aaron-king'
p1875
sS'Erik Hort'
p1876
S'/player/erik-hort'
p1877
sS'Aaron Pitchkolan'
p1878
S'/player/aaron-pitchkolan'
p1879
sS'Marlon Rojas'
p1880
S'/player/marlon-rojas'
p1881
sS'Ali Curtis'
p1882
S'/player/ali-curtis'
p1883
sS'Bobby Burling'
p1884
S'/player/bobby-burling'
p1885
sS'Joseph Vide'
p1886
S'/player/joseph-vide'
p1887
sS'Clinton Dempsey'
p1888
S'/player/clinton-dempsey'
p1889
sS'Guilherme So'
p1890
S'/player/guilherme-so'
p1891
sS'Mark Baena'
p1892
S'/player/mark-baena'
p1893
sS'Marco Ferruzzi'
p1894
S'/player/marco-ferruzzi'
p1895
sS'Louis Crayton'
p1896
S'/player/louis-crayton'
p1897
sS'Juan Agudelo'
p1898
S'/player/juan-agudelo'
p1899
sS'Tyler Hemming'
p1900
S'/player/tyler-hemming'
p1901
sS'Brandon Manzonelli'
p1902
S'/player/brandon-manzonelli'
p1903
sS'Eric Brunner'
p1904
S'/player/eric-brunner'
p1905
sS'Luis Landin'
p1906
S'/player/luis-landin'
p1907
sS'Greg Vanney'
p1908
S'/player/greg-vanney'
p1909
sS'Chaka Daley'
p1910
S'/player/chaka-daley'
p1911
sS'Dustin Branan'
p1912
S'/player/dustin-branan'
p1913
sS'Temoc Suarez'
p1914
S'/player/temoc-suarez'
p1915
sS'Leandre Griffit'
p1916
S'/player/leandre-griffit'
p1917
sS'Boris Pardo'
p1918
S'/player/boris-pardo'
p1919
sS'Matt Marquess'
p1920
S'/player/matt-marquess'
p1921
sS'Willis Forko'
p1922
S'/player/willis-forko'
p1923
sS'Jason Yeisley'
p1924
S'/player/jason-yeisley'
p1925
sS'Jeff Agoos'
p1926
S'/player/jeff-agoos'
p1927
sS'Kori Hunter'
p1928
S'/player/kori-hunter'
p1929
sS'Nick Noble'
p1930
S'/player/nick-noble'
p1931
sS'John Carroll'
p1932
S'/player/john-carroll'
p1933
sS'Chukwudi Chijindu'
p1934
S'/player/chukwudi-chijindu'
p1935
sS'Raul Diaz Arce'
p1936
S'/player/raul-diaz-arce'
p1937
sS'Josh Lambo'
p1938
S'/player/josh-lambo'
p1939
sS'Brian Kelly'
p1940
S'/player/brian-kelly'
p1941
sS'Julio Martinez'
p1942
S'/player/julio-martinez'
p1943
sS'Javier Barragan'
p1944
S'/player/javier-barragan'
p1945
sS'Gerard Lagos'
p1946
S'/player/gerard-lagos'
p1947
sS'Sean Bowers'
p1948
S'/player/sean-bowers'
p1949
sS'Andrzej Juskowiak'
p1950
S'/player/andrzej-juskowiak'
p1951
sS'Jordan James'
p1952
S'/player/jordan-james'
p1953
sS'Mark Semioli'
p1954
S'/player/mark-semioli'
p1955
sS'Rachid El Khalifi'
p1956
S'/player/rachid-el-khalifi'
p1957
sS'Wes Hart'
p1958
S'/player/wes-hart'
p1959
sS'Patrick Carroll'
p1960
S'/player/patrick-carroll'
p1961
sS'Ryan McIntosh'
p1962
S'/player/ryan-mcintosh'
p1963
sS'Billy Thompson'
p1964
S'/player/billy-thompson'
p1965
sS'Ronnie Ekelund'
p1966
S'/player/ronnie-ekelund'
p1967
sS'Bill May'
p1968
S'/player/bill-may'
p1969
sS'Maurizio Rocha'
p1970
S'/player/maurizio-rocha'
p1971
sS'Tony Kuhn'
p1972
S'/player/tony-kuhn'
p1973
sS'Justin Myers'
p1974
S'/player/justin-myers'
p1975
sS'Nick Rimando'
p1976
S'/player/nick-rimando'
p1977
sS'Jordan Graye'
p1978
S'/player/jordan-graye'
p1979
sS'George Buete'
p1980
S'/player/george-buete'
p1981
sS'Antonio Ribeiro'
p1982
S'/player/antonio-ribeiro'
p1983
sS'Benjamin Benditson'
p1984
S'/player/benjamin-benditson'
p1985
sS'Markus Schopp'
p1986
S'/player/markus-schopp'
p1987
sS'Avery John'
p1988
S'/player/avery-john'
p1989
sS'Gordon Kljestan'
p1990
S'/player/gordon-kljestan'
p1991
sS'John Hayden'
p1992
S'/player/john-hayden'
p1993
sS'Rene Ortiz'
p1994
S'/player/rene-ortiz'
p1995
sS'Clint Peay'
p1996
S'/player/clint-peay'
p1997
sS'Jed Zayner'
p1998
S'/player/jed-zayner'
p1999
sS'Ramon Sanchez'
p2000
S'/player/ramon-sanchez'
p2001
sS'Michael Palacio'
p2002
S'/player/michael-palacio'
p2003
sS'Eduardo Coudet'
p2004
S'/player/eduardo-coudet'
p2005
sS'Jean-Martial Kipre'
p2006
S'/player/jean-martial-kipre'
p2007
sS'Thiago da Rosa Correa'
p2008
S'/player/thiago-da-rosa-correa'
p2009
sS'Erick Scott'
p2010
S'/player/erick-scott'
p2011
sS'Juan Pietravallo'
p2012
S'/player/juan-pietravallo'
p2013
sS'Corben Bone'
p2014
S'/player/corben-bone'
p2015
sS'Brian Edwards'
p2016
S'/player/brian-edwards'
p2017
sS'Travis Rinker'
p2018
S'/player/travis-rinker'
p2019
sS'Tyrone Marshall'
p2020
S'/player/tyrone-marshall'
p2021
sS'Eric Alexander'
p2022
S'/player/eric-alexander'
p2023
sS'Imad Baba'
p2024
S'/player/imad-baba'
p2025
sS'Mike Burns'
p2026
S'/player/mike-burns'
p2027
sS'Brian Haynes'
p2028
S'/player/brian-haynes'
p2029
sS'Johanes Maliza'
p2030
S'/player/johanes-maliza'
p2031
sS'Michael Clark'
p2032
S'/player/michael-clark'
p2033
sS'Jaime Estupinan'
p2034
S'/player/jaime-estupinan'
p2035
sS'Martin Hutton'
p2036
S'/player/martin-hutton'
p2037
sS'Ivan Trujillo'
p2038
S'/player/ivan-trujillo'
p2039
sS'Oscar Draguicevich'
p2040
S'/player/oscar-draguicevich'
p2041
sS'Adam Sloustcher'
p2042
S'/player/adam-sloustcher'
p2043
sS'Chuck Browder'
p2044
S'/player/chuck-browder'
p2045
sS'Vardan Adzemian'
p2046
S'/player/vardan-adzemian'
p2047
sS'Michael Zaher'
p2048
S'/player/michael-zaher'
p2049
sS'Raimo De Vries'
p2050
S'/player/raimo-de-vries'
p2051
sS'Tenywa Bonseu'
p2052
S'/player/tenywa-bonseu'
p2053
sS'Tab Ramos'
p2054
S'/player/tab-ramos'
p2055
sS'Josh McKay'
p2056
S'/player/josh-mckay'
p2057
sS'Joey Melo'
p2058
S'/player/joey-melo'
p2059
sS'Yari Allnutt'
p2060
S'/player/yari-allnutt'
p2061
sS'Chris Gbandi'
p2062
S'/player/chris-gbandi'
p2063
sS'Alen Kozic'
p2064
S'/player/alen-kozic'
p2065
sS'Fabrice Noel'
p2066
S'/player/fabrice-noel'
p2067
sS'Adegboyega Oshoniyi'
p2068
S'/player/adegboyega-oshoniyi'
p2069
sS'Srdjan Djekanovic'
p2070
S'/player/srdjan-djekanovic'
p2071
sS'Alberto Delgado'
p2072
S'/player/alberto-delgado'
p2073
sS'Felix Brillant'
p2074
S'/player/felix-brillant'
p2075
sS'Peter Hattrup'
p2076
S'/player/peter-hattrup'
p2077
sS'Zoltan Hercegfalvi'
p2078
S'/player/zoltan-hercegfalvi'
p2079
sS'Joey Thieman'
p2080
S'/player/joey-thieman'
p2081
sS'Andrew Jacobson'
p2082
S'/player/andrew-jacobson'
p2083
sS'Steve Trittschuh'
p2084
S'/player/steve-trittschuh'
p2085
sS'Kevin Alston'
p2086
S'/player/kevin-alston'
p2087
sS'D.J. Countess'
p2088
S'/player/dj-countess'
p2089
sS'Michael Seamon'
p2090
S'/player/michael-seamon'
p2091
sS'Mark Wilson'
p2092
S'/player/mark-wilson'
p2093
sS'Rich Cullen'
p2094
S'/player/rich-cullen'
p2095
sS'Randi Patterson'
p2096
S'/player/randi-patterson'
p2097
sS'Leonardo Squadrone'
p2098
S'/player/leonardo-squadrone'
p2099
sS'Chris Wanamaker'
p2100
S'/player/chris-wanamaker'
p2101
sS'Eduardo Dominguez'
p2102
S'/player/eduardo-dominguez'
p2103
sS'Craig Thompson'
p2104
S'/player/craig-thompson'
p2105
sS'Kevin Hartman'
p2106
S'/player/kevin-hartman'
p2107
sS'Marco Reda'
p2108
S'/player/marco-reda'
p2109
sS'Jason Bent'
p2110
S'/player/jason-bent'
p2111
sS'Conor Chinn'
p2112
S'/player/conor-chinn'
p2113
sS'Jim Curtin'
p2114
S'/player/jim-curtin'
p2115
sS'Paul Caligiuri'
p2116
S'/player/paul-caligiuri'
p2117
sS'Willie Sims'
p2118
S'/player/willie-sims'
p2119
sS'Kenneth Deuchar'
p2120
S'/player/kenneth-deuchar'
p2121
sS'Carlos Mendes'
p2122
S'/player/carlos-mendes'
p2123
sS'Seth George'
p2124
S'/player/seth-george'
p2125
sS'Jesse Marsch'
p2126
S'/player/jesse-marsch'
p2127
sS'Francisco Navas Cobo'
p2128
S'/player/francisco-navas-cobo'
p2129
sS'Gonzalo Segares'
p2130
S'/player/gonzalo-segares'
p2131
sS'Jason Hernandez'
p2132
S'/player/jason-hernandez'
p2133
sS'Claudio Lopez'
p2134
S'/player/claudio-lopez'
p2135
sS'Cesar Zamora'
p2136
S'/player/cesar-zamora'
p2137
sS'Chris Pozniak'
p2138
S'/player/chris-pozniak'
p2139
sS'Rodrigo Faria'
p2140
S'/player/rodrigo-faria'
p2141
sS'Cobi Jones'
p2142
S'/player/cobi-jones'
p2143
sS'Damian Alvarez'
p2144
S'/player/damian-alvarez'
p2145
sS'Bryan Arguez'
p2146
S'/player/bryan-arguez'
p2147
sS'Kenny Cutler'
p2148
S'/player/kenny-cutler'
p2149
sS'Brett Rodriguez'
p2150
S'/player/brett-rodriguez'
p2151
sS'Joseph DiGiamarino'
p2152
S'/player/joseph-digiamarino'
p2153
sS'Miguel Guante'
p2154
S'/player/miguel-guante'
p2155
sS'Jeff Carroll'
p2156
S'/player/jeff-carroll'
p2157
sS'Andrew Hainault'
p2158
S'/player/andrew-hainault'
p2159
sS'John Ellinger'
p2160
S'/player/john-ellinger'
p2161
sS'Evans Wise'
p2162
S'/player/evans-wise'
p2163
sS'Fabian Espindola'
p2164
S'/player/fabian-espindola'
p2165
sS'Clifton Wilmes'
p2166
S'/player/clifton-wilmes'
p2167
sS'David Winner'
p2168
S'/player/david-winner'
p2169
sS'Giovanni Savarese'
p2170
S'/player/giovanni-savarese'
p2171
sS'Miles Joseph'
p2172
S'/player/miles-joseph'
p2173
sS'Ruben Luna'
p2174
S'/player/ruben-luna'
p2175
sS'Julian Gomez'
p2176
S'/player/julian-gomez'
p2177
sS'Stefani Miglioranzi'
p2178
S'/player/stefani-miglioranzi'
p2179
sS'Thierry Henry'
p2180
S'/player/thierry-henry'
p2181
sS'Jim Manganello'
p2182
S'/player/jim-manganello'
p2183
sS'David Roth'
p2184
S'/player/david-roth'
p2185
sS'Orlando Ramirez'
p2186
S'/player/orlando-ramirez'
p2187
sS'Joe Warren'
p2188
S'/player/joe-warren'
p2189
sS'Gerardo Laterza'
p2190
S'/player/gerardo-laterza'
p2191
sS'Dane Richards'
p2192
S'/player/dane-richards'
p2193
sS'Wells Thompson'
p2194
S'/player/wells-thompson'
p2195
sS'Cristian Arrieta'
p2196
S'/player/cristian-arrieta'
p2197
sS'Chris Karcz'
p2198
S'/player/chris-karcz'
p2199
sS'J.J. Wozniak'
p2200
S'/player/jj-wozniak'
p2201
sS'Korede Aiyegbusi'
p2202
S'/player/korede-aiyegbusi'
p2203
sS'Gabe Eastman'
p2204
S'/player/gabe-eastman'
p2205
sS'Tyson Wahl'
p2206
S'/player/tyson-wahl'
p2207
sS'Eric Avila'
p2208
S'/player/eric-avila'
p2209
sS'Michael Bradley'
p2210
S'/player/michael-bradley'
p2211
sS'Andy Kirk'
p2212
S'/player/andy-kirk'
p2213
sS'Paul Dalglish'
p2214
S'/player/paul-dalglish'
p2215
sS'Jonathan Leathers'
p2216
S'/player/jonathan-leathers'
p2217
sS'Peter Van Deven'
p2218
S'/player/peter-van-deven'
p2219
sS'Hamisi Amani-Dove'
p2220
S'/player/hamisi-amani-dove'
p2221
sS'Lesly Fellinga'
p2222
S'/player/lesly-fellinga'
p2223
sS'Jeff Bilyk'
p2224
S'/player/jeff-bilyk'
p2225
sS'Alexi Lalas'
p2226
S'/player/alexi-lalas'
p2227
sS'Matias Donnet'
p2228
S'/player/matias-donnet'
p2229
sS'Luis Escalada'
p2230
S'/player/luis-escalada'
p2231
sS'Ben Parry'
p2232
S'/player/ben-parry'
p2233
sS'Kevin Koetters'
p2234
S'/player/kevin-koetters'
p2235
sS'Manuel Bucuane'
p2236
S'/player/manuel-bucuane'
p2237
sS'Andy Rosenband'
p2238
S'/player/andy-rosenband'
p2239
sS'Aaron Lanes'
p2240
S'/player/aaron-lanes'
p2241
sS'Francisco Marcelo Vega'
p2242
S'/player/francisco-marcelo-vega'
p2243
sS'Darren Sawatzky'
p2244
S'/player/darren-sawatzky'
p2245
sS'Giorgi Chirgadze'
p2246
S'/player/giorgi-chirgadze'
p2247
sS'Kheli Dube'
p2248
S'/player/kheli-dube'
p2249
sS'Chase Wileman'
p2250
S'/player/chase-wileman'
p2251
sS'Nana Kuffour'
p2252
S'/player/nana-kuffour'
p2253
sS'Eddie Firmani'
p2254
S'/player/eddie-firmani'
p2255
sS'Evan Brown'
p2256
S'/player/evan-brown'
p2257
sS'Richard Farrer'
p2258
S'/player/richard-farrer'
p2259
sS'Erik Imler'
p2260
S'/player/erik-imler'
p2261
sS'Jerson Monteiro'
p2262
S'/player/jerson-monteiro'
p2263
sS'Marco Etcheverry'
p2264
S'/player/marco-etcheverry'
p2265
sS'Andrew Parrish'
p2266
S'/player/andrew-parrish'
p2267
sS'Tayt Ianni'
p2268
S'/player/tayt-ianni'
p2269
sS'Aleksey Korol'
p2270
S'/player/aleksey-korol'
p2271
sS'Sinisa Ubiparipovic'
p2272
S'/player/sinisa-ubiparipovic'
p2273
sS'Khano Smith'
p2274
S'/player/khano-smith'
p2275
sS'Tim Hankinson'
p2276
S'/player/tim-hankinson'
p2277
sS'Amir Lowery'
p2278
S'/player/amir-lowery'
p2279
sS'Marvell Wynne'
p2280
S'/player/marvell-wynne'
p2281
sS'Steve Rammel'
p2282
S'/player/steve-rammel'
p2283
sS'Michael Lahoud'
p2284
S'/player/michael-lahoud'
p2285
sS'Guillermo Barros Schelotto'
p2286
S'/player/guillermo-barros-schelotto'
p2287
sS'Juan Diego Gonzalez'
p2288
S'/player/juan-diego-gonzalez'
p2289
sS'Ike Opara'
p2290
S'/player/ike-opara'
p2291
sS'Tommy Reasoner'
p2292
S'/player/tommy-reasoner'
p2293
sS'Chris Rolfe'
p2294
S'/player/chris-rolfe'
p2295
sS'Jerry Tamashiro'
p2296
S'/player/jerry-tamashiro'
p2297
sS'Dario Delgado'
p2298
S'/player/dario-delgado'
p2299
sS'Maicon Santos'
p2300
S'/player/maicon-santos'
p2301
sS'Michael Dello-Russo'
p2302
S'/player/michael-dello-russo'
p2303
sS'Jorge Espinoza'
p2304
S'/player/jorge-espinoza'
p2305
sS'Facundo Erpen'
p2306
S'/player/facundo-erpen'
p2307
sS'Tom Tate'
p2308
S'/player/tom-tate'
p2309
sS'Bryan Jordan'
p2310
S'/player/bryan-jordan'
p2311
sS'Mike Sambursky'
p2312
S'/player/mike-sambursky'
p2313
sS'David Kramer'
p2314
S'/player/david-kramer'
p2315
sS'James Thorpe'
p2316
S'/player/james-thorpe'
p2317
sS'Adam Moffat'
p2318
S'/player/adam-moffat'
p2319
sS'Estuardo Sanchez'
p2320
S'/player/estuardo-sanchez'
p2321
sS'Alain Nkong'
p2322
S'/player/alain-nkong'
p2323
sS'Brian Roberts'
p2324
S'/player/brian-roberts'
p2325
sS'Tim Ream'
p2326
S'/player/tim-ream'
p2327
sS' Jackson'
p2328
S'/player/-jackson'
p2329
sS' Eduardo'
p2330
S'/player/-eduardo'
p2331
sS'Alex Deegan'
p2332
S'/player/alex-deegan'
p2333
sS'Joe Germanese'
p2334
S'/player/joe-germanese'
p2335
sS'Arsene Oka'
p2336
S'/player/arsene-oka'
p2337
sS'Danny Jackson'
p2338
S'/player/danny-jackson'
p2339
sS'Chris Martinez'
p2340
S'/player/chris-martinez'
p2341
sS'Jason Moore'
p2342
S'/player/jason-moore'
p2343
sS'Danny DeVall'
p2344
S'/player/danny-devall'
p2345
sS'Edson Elcock'
p2346
S'/player/edson-elcock'
p2347
sS'Chris Houser'
p2348
S'/player/chris-houser'
p2349
sS'Jack Jewsbury'
p2350
S'/player/jack-jewsbury'
p2351
sS'Ernst Oebster'
p2352
S'/player/ernst-oebster'
p2353
sS'Ben Zemanski'
p2354
S'/player/ben-zemanski'
p2355
sS'John Gilkerson'
p2356
S'/player/john-gilkerson'
p2357
sS'Frank Klopas'
p2358
S'/player/frank-klopas'
p2359
sS'Floyd Franks'
p2360
S'/player/floyd-franks'
p2361
sS'Jim Rooney'
p2362
S'/player/jim-rooney'
p2363
sS'Luis Gallardo'
p2364
S'/player/luis-gallardo'
p2365
sS'Dejan Jakovic'
p2366
S'/player/dejan-jakovic'
p2367
sS'Steve McAnulty'
p2368
S'/player/steve-mcanulty'
p2369
sS'Janusz Michallik'
p2370
S'/player/janusz-michallik'
p2371
sS'John Minagawa-Webster'
p2372
S'/player/john-minagawa-webster'
p2373
sS'Omar Gonzalez'
p2374
S'/player/omar-gonzalez'
p2375
sS'Brandon Barklage'
p2376
S'/player/brandon-barklage'
p2377
sS'Atiba Harris'
p2378
S'/player/atiba-harris'
p2379
sS'Brian Perk'
p2380
S'/player/brian-perk'
p2381
sS'Danleigh Borman'
p2382
S'/player/danleigh-borman'
p2383
sS'Tony Meola'
p2384
S'/player/tony-meola'
p2385
sS'Josh Tudela'
p2386
S'/player/josh-tudela'
p2387
sS'Pascal Bedrossian'
p2388
S'/player/pascal-bedrossian'
p2389
sS'Collins John'
p2390
S'/player/collins-john'
p2391
sS'David Estrada'
p2392
S'/player/david-estrada'
p2393
sS'Bruno Menezes'
p2394
S'/player/bruno-menezes'
p2395
sS'Michael Videira'
p2396
S'/player/michael-videira'
p2397
sS'Juan Toja'
p2398
S'/player/juan-toja'
p2399
sS'Brian Kamler'
p2400
S'/player/brian-kamler'
p2401
sS'Ned Grabavoy'
p2402
S'/player/ned-grabavoy'
p2403
sS'Jorge Flores'
p2404
S'/player/jorge-flores'
p2405
sS'Kyle Brown'
p2406
S'/player/kyle-brown'
p2407
sS'Greg Lalas'
p2408
S'/player/greg-lalas'
p2409
sS'Goran Hunjak'
p2410
S'/player/goran-hunjak'
p2411
sS'Micah Cooks'
p2412
S'/player/micah-cooks'
p2413
sS'Bryan Namoff'
p2414
S'/player/bryan-namoff'
p2415
sS'Bradley Guzan'
p2416
S'/player/bradley-guzan'
p2417
sS'Gabriel Cichero'
p2418
S'/player/gabriel-cichero'
p2419
sS'Scott Sealy'
p2420
S'/player/scott-sealy'
p2421
sS'Michael Harrington'
p2422
S'/player/michael-harrington'
p2423
sS'Christoff Lindenmayer'
p2424
S'/player/christoff-lindenmayer'
p2425
sS'Mark Dodd'
p2426
S'/player/mark-dodd'
p2427
sS'Steward Ceus'
p2428
S'/player/steward-ceus'
p2429
sS'Danny Dichio'
p2430
S'/player/danny-dichio'
p2431
sS'Quavas Kirk'
p2432
S'/player/quavas-kirk'
p2433
sS'Andrea Lombardo'
p2434
S'/player/andrea-lombardo'
p2435
sS'Emmett Idzahl'
p2436
S'/player/emmett-idzahl'
p2437
sS'Tyler Kettering'
p2438
S'/player/tyler-kettering'
p2439
sS'David de la Torre'
p2440
S'/player/david-de-la-torre'
p2441
sS'Ansil Elcock'
p2442
S'/player/ansil-elcock'
p2443
sS'Ted Eck'
p2444
S'/player/ted-eck'
p2445
sS'Kasali Casal'
p2446
S'/player/kasali-casal'
p2447
sS'Cory Gibbs'
p2448
S'/player/cory-gibbs'
p2449
sS'Duilio Davino'
p2450
S'/player/duilio-davino'
p2451
sS'Adam Braz'
p2452
S'/player/adam-braz'
p2453
sS'Nidal Baba'
p2454
S'/player/nidal-baba'
p2455
sS'Bob Bradley'
p2456
S'/player/bob-bradley'
p2457
sS'Dan Sirota'
p2458
S'/player/dan-sirota'
p2459
sS'Chris Snitko'
p2460
S'/player/chris-snitko'
p2461
sS'Juan Mendoza'
p2462
S'/player/juan-mendoza'
p2463
sS'Scott Uderitz'
p2464
S'/player/scott-uderitz'
p2465
sS'Jared Montz'
p2466
S'/player/jared-montz'
p2467
sS'Calen Carr'
p2468
S'/player/calen-carr'
p2469
sS'Ian Feuer'
p2470
S'/player/ian-feuer'
p2471
sS'Brian Piesner'
p2472
S'/player/brian-piesner'
p2473
sS'Collen Warner'
p2474
S'/player/collen-warner'
p2475
sS'Keith Beach'
p2476
S'/player/keith-beach'
p2477
sS'Andy Williams'
p2478
S'/player/andy-williams'
p2479
sS'Jerrod Laventure'
p2480
S'/player/jerrod-laventure'
p2481
sS'Clyde Simms'
p2482
S'/player/clyde-simms'
p2483
sS'Manny Motajo'
p2484
S'/player/manny-motajo'
p2485
sS'Ante Jazic'
p2486
S'/player/ante-jazic'
p2487
sS'Alan Woods'
p2488
S'/player/alan-woods'
p2489
sS'George Gelnovatch'
p2490
S'/player/george-gelnovatch'
p2491
sS'Ubusuku Abukusumo'
p2492
S'/player/ubusuku-abukusumo'
p2493
sS'Bryan Leyva'
p2494
S'/player/bryan-leyva'
p2495
sS'John Thorrington'
p2496
S'/player/john-thorrington'
p2497
sS'Maurice Johnston'
p2498
S'/player/maurice-johnston'
p2499
sS'Kwame Sarkodie'
p2500
S'/player/kwame-sarkodie'
p2501
sS'Eduardo Lillingston'
p2502
S'/player/eduardo-lillingston'
p2503
sS'Diego Serna'
p2504
S'/player/diego-serna'
p2505
sS'Lubos Kubik'
p2506
S'/player/lubos-kubik'
p2507
sS'Gerell Elliott'
p2508
S'/player/gerell-elliott'
p2509
sS'Olivier Tebily'
p2510
S'/player/olivier-tebily'
p2511
sS'Kiki Willis'
p2512
S'/player/kiki-willis'
p2513
sS'Kevin Anderson'
p2514
S'/player/kevin-anderson'
p2515
sS"Ronnie O'Brien"
p2516
S'/player/ronnie-obrien'
p2517
sS'Dane Murphy'
p2518
S'/player/dane-murphy'
p2519
sS'Jeff Stewart'
p2520
S'/player/jeff-stewart'
p2521
sS'Peter Lak'
p2522
S'/player/peter-lak'
p2523
sS'Bruno Guarda'
p2524
S'/player/bruno-guarda'
p2525
sS'Daniel Torres'
p2526
S'/player/daniel-torres'
p2527
sS'Mike Magee'
p2528
S'/player/mike-magee'
p2529
sS'Tyler Rosenlund'
p2530
S'/player/tyler-rosenlund'
p2531
sS'Doug Petras'
p2532
S'/player/doug-petras'
p2533
sS'Jim Brennan'
p2534
S'/player/jim-brennan'
p2535
sS'Marshall Leonard'
p2536
S'/player/marshall-leonard'
p2537
sS'Ryan McMahen'
p2538
S'/player/ryan-mcmahen'
p2539
sS'Marc Burch'
p2540
S'/player/marc-burch'
p2541
sS'Austin Washington'
p2542
S'/player/austin-washington'
p2543
sS'Aaron Chandler'
p2544
S'/player/aaron-chandler'
p2545
sS'Theophilus Khumalo'
p2546
S'/player/theophilus-khumalo'
p2547
sS'Emmanuel Gomez'
p2548
S'/player/emmanuel-gomez'
p2549
sS'Jeff Baicher'
p2550
S'/player/jeff-baicher'
p2551
sS'Jerzy Podbrozny'
p2552
S'/player/jerzy-podbrozny'
p2553
sS'Justin Braun'
p2554
S'/player/justin-braun'
p2555
sS'Erasmo Solorzano'
p2556
S'/player/erasmo-solorzano'
p2557
sS'Thiago Martins'
p2558
S'/player/thiago-martins'
p2559
sS'Kerry Zavagnin'
p2560
S'/player/kerry-zavagnin'
p2561
sS'Jhon Kennedy Hurtado'
p2562
S'/player/jhon-kennedy-hurtado'
p2563
sS'Scott Cannon'
p2564
S'/player/scott-cannon'
p2565
sS'Bobby Boswell'
p2566
S'/player/bobby-boswell'
p2567
sS'T.J. Hannig'
p2568
S'/player/tj-hannig'
p2569
sS'Dario Fabbro'
p2570
S'/player/dario-fabbro'
p2571
sS'Kyle Beckerman'
p2572
S'/player/kyle-beckerman'
p2573
sS'Eric Kronberg'
p2574
S'/player/eric-kronberg'
p2575
sS'Daniel Peinado'
p2576
S'/player/daniel-peinado'
p2577
sS'Dwayne De Rosario'
p2578
S'/player/dwayne-de-rosario'
p2579
sS'Alex Woods'
p2580
S'/player/alex-woods'
p2581
sS'Edgaras Jankauskas'
p2582
S'/player/edgaras-jankauskas'
p2583
sS'Paul Wright'
p2584
S'/player/paul-wright'
p2585
sS'Jason Boyce'
p2586
S'/player/jason-boyce'
p2587
sS'Steven Curfman'
p2588
S'/player/steven-curfman'
p2589
sS'Robert Scarlett'
p2590
S'/player/robert-scarlett'
p2591
sS'Alvaro Saborio'
p2592
S'/player/alvaro-saborio'
p2593
sS'David Arvizu'
p2594
S'/player/david-arvizu'
p2595
sS'Amos Magee'
p2596
S'/player/amos-magee'
p2597
sS'Giuseppe Galderisi'
p2598
S'/player/giuseppe-galderisi'
p2599
sS'James Katoa'
p2600
S'/player/james-katoa'
p2601
sS'Robert Ssejjemba'
p2602
S'/player/robert-ssejjemba'
p2603
sS'Harut Karapetyan'
p2604
S'/player/harut-karapetyan'
p2605
sS'Peter Vagenas'
p2606
S'/player/peter-vagenas'
p2607
sS'Michael Stephens'
p2608
S'/player/michael-stephens'
p2609
sS'Bryan Byrne'
p2610
S'/player/bryan-byrne'
p2611
sS'John Kowalski'
p2612
S'/player/john-kowalski'
p2613
sS'Joel Lindpere'
p2614
S'/player/joel-lindpere'
p2615
sS'Daniel Wasson'
p2616
S'/player/daniel-wasson'
p2617
sS'Pat Noonan'
p2618
S'/player/pat-noonan'
p2619
sS'Danny Wynn'
p2620
S'/player/danny-wynn'
p2621
sS'Steve Jolley'
p2622
S'/player/steve-jolley'
p2623
sS'DeMetrius White'
p2624
S'/player/demetrius-white'
p2625
sS'Joshua Gros'
p2626
S'/player/joshua-gros'
p2627
sS'Justin Morrow'
p2628
S'/player/justin-morrow'
p2629
sS'Mario Longo'
p2630
S'/player/mario-longo'
p2631
sS'Jake Traeger'
p2632
S'/player/jake-traeger'
p2633
sS'Ian Fuller'
p2634
S'/player/ian-fuller'
p2635
sS'Jon Lowery'
p2636
S'/player/jon-lowery'
p2637
sS'David Hayes'
p2638
S'/player/david-hayes'
p2639
sS' Geovanni'
p2640
S'/player/-geovanni'
p2641
sS'Hollis Donaldson'
p2642
S'/player/hollis-donaldson'
p2643
sS'Brian Johnson'
p2644
S'/player/brian-johnson'
p2645
sS'Matt Behncke'
p2646
S'/player/matt-behncke'
p2647
sS'Lothar Matthaus'
p2648
S'/player/lothar-matthaus'
p2649
sS'Antti Sumiala'
p2650
S'/player/antti-sumiala'
p2651
sS'Danny Allsopp'
p2652
S'/player/danny-allsopp'
p2653
sS'Marco Dos Santos'
p2654
S'/player/marco-dos-santos'
p2655
sS'Kraig Chiles'
p2656
S'/player/kraig-chiles'
p2657
sS'Greg Curry'
p2658
S'/player/greg-curry'
p2659
sS'Mubarike Chisoni'
p2660
S'/player/mubarike-chisoni'
p2661
sS'Nathan Sturgis'
p2662
S'/player/nathan-sturgis'
p2663
sS'Fausto Klinger'
p2664
S'/player/fausto-klinger'
p2665
sS'Sergei Raad'
p2666
S'/player/sergei-raad'
p2667
sS'Esteban Arias'
p2668
S'/player/esteban-arias'
p2669
sS'Jan Eriksson'
p2670
S'/player/jan-eriksson'
p2671
sS'Nick Zimmerman'
p2672
S'/player/nick-zimmerman'
p2673
sS'Peter Byaruhanga'
p2674
S'/player/peter-byaruhanga'
p2675
sS'Macoumba Kandji'
p2676
S'/player/macoumba-kandji'
p2677
sS'Omid Namazi'
p2678
S'/player/omid-namazi'
p2679
sS'Maykel Galindo'
p2680
S'/player/maykel-galindo'
p2681
sS'Ricky Schramm'
p2682
S'/player/ricky-schramm'
p2683
sS'Sebastien Vorbe'
p2684
S'/player/sebastien-vorbe'
p2685
sS'Nico Colaluca'
p2686
S'/player/nico-colaluca'
p2687
sS'Joselito Vaca'
p2688
S'/player/joselito-vaca'
p2689
sS'Nikolas Besagno'
p2690
S'/player/nikolas-besagno'
p2691
sS'Jason Garey'
p2692
S'/player/jason-garey'
p2693
sS'Craig Capano'
p2694
S'/player/craig-capano'
p2695
sS'Alberto Montoya'
p2696
S'/player/alberto-montoya'
p2697
sS'Clint Mathis'
p2698
S'/player/clint-mathis'
p2699
sS'Leo Cullen'
p2700
S'/player/leo-cullen'
p2701
sS'Andy Iro'
p2702
S'/player/andy-iro'
p2703
sS'Jefferson Gottardi'
p2704
S'/player/jefferson-gottardi'
p2705
sS'Jon Busch'
p2706
S'/player/jon-busch'
p2707
sS'Christopher Carrieri'
p2708
S'/player/christopher-carrieri'
p2709
sS'James Georgeff'
p2710
S'/player/james-georgeff'
p2711
sS'Jacob Peterson'
p2712
S'/player/jacob-peterson'
p2713
sS'Scott Garlick'
p2714
S'/player/scott-garlick'
p2715
sS'Chris Megaloudis'
p2716
S'/player/chris-megaloudis'
p2717
sS'Brian Plotkin'
p2718
S'/player/brian-plotkin'
p2719
sS'Peter Dzubay'
p2720
S'/player/peter-dzubay'
p2721
sS'Gino Padula'
p2722
S'/player/gino-padula'
p2723
sS'Mark Dougherty'
p2724
S'/player/mark-dougherty'
p2725
sS'Eric Eichmann'
p2726
S'/player/eric-eichmann'
p2727
sS'Paulo Dos Santos'
p2728
S'/player/paulo-dos-santos'
p2729
sS'Fred DeGand'
p2730
S'/player/fred-degand'
p2731
sS'Andre Luiz'
p2732
S'/player/andre-luiz'
p2733
sS'Joao Luiz'
p2734
S'/player/joao-luiz'
p2735
sS'Istvan Urbanyi'
p2736
S'/player/istvan-urbanyi'
p2737
sS'Sebastien Le Toux'
p2738
S'/player/sebastien-le-toux'
p2739
sS'Peguero Jean Philippe'
p2740
S'/player/peguero-jean-philippe'
p2741
sS'Greg Andrulis'
p2742
S'/player/greg-andrulis'
p2743
sS'Byron Alvarez'
p2744
S'/player/byron-alvarez'
p2745
sS'Bill Hamid'
p2746
S'/player/bill-hamid'
p2747
sS'Ed Pinon'
p2748
S'/player/ed-pinon'
p2749
sS'Brian Carroll'
p2750
S'/player/brian-carroll'
p2751
sS'Shawn Kuykendall'
p2752
S'/player/shawn-kuykendall'
p2753
sS'Maxi Viera'
p2754
S'/player/maxi-viera'
p2755
sS'Brian Mullan'
p2756
S'/player/brian-mullan'
p2757
sS'Ronald Waterreus'
p2758
S'/player/ronald-waterreus'
p2759
sS'Brandon Prideaux'
p2760
S'/player/brandon-prideaux'
p2761
sS'Eddie Robinson'
p2762
S'/player/eddie-robinson'
p2763
sS'Scott Bolkan'
p2764
S'/player/scott-bolkan'
p2765
sS'Matt Chulis'
p2766
S'/player/matt-chulis'
p2767
sS'Samuel Caballero'
p2768
S'/player/samuel-caballero'
p2769
sS'David Beckham'
p2770
S'/player/david-beckham'
p2771
sS'Nansha Kalonji'
p2772
S'/player/nansha-kalonji'
p2773
sS'Isaac Romo'
p2774
S'/player/isaac-romo'
p2775
sS'Stan Lembryk'
p2776
S'/player/stan-lembryk'
p2777
sS'Brian Ching'
p2778
S'/player/brian-ching'
p2779
sS'Sterling Wescott'
p2780
S'/player/sterling-wescott'
p2781
sS'Lance Parker'
p2782
S'/player/lance-parker'
p2783
sS'Ryan Cordeiro'
p2784
S'/player/ryan-cordeiro'
p2785
sS'Ivan McKinley'
p2786
S'/player/ivan-mckinley'
p2787
sS'Peter Billmeyer'
p2788
S'/player/peter-billmeyer'
p2789
sS'Eric Pogue'
p2790
S'/player/eric-pogue'
p2791
sS'Rob Valentino'
p2792
S'/player/rob-valentino'
p2793
sS'Devon McTavish'
p2794
S'/player/devon-mctavish'
p2795
sS'Justin Mapp'
p2796
S'/player/justin-mapp'
p2797
sS'Zach Thornton'
p2798
S'/player/zach-thornton'
p2799
sS'Steve Ralston'
p2800
S'/player/steve-ralston'
p2801
sS'David Ferreira'
p2802
S'/player/david-ferreira'
p2803
sS'Damian Silvera'
p2804
S'/player/damian-silvera'
p2805
sS'John Cunliffe'
p2806
S'/player/john-cunliffe'
p2807
sS'Anthony Peters'
p2808
S'/player/anthony-peters'
p2809
sS'Easton Wilson'
p2810
S'/player/easton-wilson'
p2811
sS'Patrick Tardieu'
p2812
S'/player/patrick-tardieu'
p2813
sS'Carlos Parra'
p2814
S'/player/carlos-parra'
p2815
sS'Andrew Peterson'
p2816
S'/player/andrew-peterson'
p2817
sS'Saul Martinez'
p2818
S'/player/saul-martinez'
p2819
sS'Omar Jasseh'
p2820
S'/player/omar-jasseh'
p2821
sS'Jose Abundis'
p2822
S'/player/jose-abundis'
p2823
sS'Scott Benedetti'
p2824
S'/player/scott-benedetti'
p2825
sS'Stephen Armstrong'
p2826
S'/player/stephen-armstrong'
p2827
sS'Eric Vasquez'
p2828
S'/player/eric-vasquez'
p2829
sS'Tom Presthus'
p2830
S'/player/tom-presthus'
p2831
sS'Kyle Veris'
p2832
S'/player/kyle-veris'
p2833
sS'Francis Doe'
p2834
S'/player/francis-doe'
p2835
sS'Alain Sutter'
p2836
S'/player/alain-sutter'
p2837
sS'Shavar Thomas'
p2838
S'/player/shavar-thomas'
p2839
sS'Argenis Fernandez'
p2840
S'/player/argenis-fernandez'
p2841
sS'Corey Ashe'
p2842
S'/player/corey-ashe'
p2843
sS'Remi Wearing'
p2844
S'/player/remi-wearing'
p2845
sS'Troy Roberts'
p2846
S'/player/troy-roberts'
p2847
sS'Ali Gerba'
p2848
S'/player/ali-gerba'
p2849
sS'Colin Clarke'
p2850
S'/player/colin-clarke'
p2851
sS'Michael Parkhurst'
p2852
S'/player/michael-parkhurst'
p2853
sS'Jamar Beasley'
p2854
S'/player/jamar-beasley'
p2855
sS'Victor Pineda'
p2856
S'/player/victor-pineda'
p2857
sS'Milton Blanco'
p2858
S'/player/milton-blanco'
p2859
sS'Rick Titus'
p2860
S'/player/rick-titus'
p2861
sS'Anthony Hamilton'
p2862
S'/player/anthony-hamilton'
p2863
sS'Joel Kitamirike'
p2864
S'/player/joel-kitamirike'
p2865
sS'Tim Sahaydak'
p2866
S'/player/tim-sahaydak'
p2867
sS'Nat Borchers'
p2868
S'/player/nat-borchers'
p2869
sS'Mauricio Castro'
p2870
S'/player/mauricio-castro'
p2871
sS'Alexandre Boucicaut'
p2872
S'/player/alexandre-boucicaut'
p2873
sS'Jose Alegria'
p2874
S'/player/jose-alegria'
p2875
sS'Pat Phelan'
p2876
S'/player/pat-phelan'
p2877
sS'Brennan Tennelle'
p2878
S'/player/brennan-tennelle'
p2879
sS'Oscar Pareja'
p2880
S'/player/oscar-pareja'
p2881
sS'Michael Enfield'
p2882
S'/player/michael-enfield'
p2883
sS'Tim Murray'
p2884
S'/player/tim-murray'
p2885
sS'Arash Noamouz'
p2886
S'/player/arash-noamouz'
p2887
sS'Paul Dougherty'
p2888
S'/player/paul-dougherty'
p2889
sS'Mark Simpson'
p2890
S'/player/mark-simpson'
p2891
sS'Brad Ring'
p2892
S'/player/brad-ring'
p2893
sS'Nick LaBrocca'
p2894
S'/player/nick-labrocca'
p2895
sS'Marcelo Balboa'
p2896
S'/player/marcelo-balboa'
p2897
sS'Robert Campbell'
p2898
S'/player/robert-campbell'
p2899
sS'Ruben Hernandez'
p2900
S'/player/ruben-hernandez'
p2901
sS'Mauricio Wright'
p2902
S'/player/mauricio-wright'
p2903
sS'Simon Elliott'
p2904
S'/player/simon-elliott'
p2905
sS'Jorge Rojas'
p2906
S'/player/jorge-rojas'
p2907
sS'Chris Unger'
p2908
S'/player/chris-unger'
p2909
sS'Danny Mwanga'
p2910
S'/player/danny-mwanga'
p2911
sS'Onandi Lowe'
p2912
S'/player/onandi-lowe'
p2913
sS'Blake Wagner'
p2914
S'/player/blake-wagner'
p2915
sS'Ricardo Pierre-Louis'
p2916
S'/player/ricardo-pierre-louis'
p2917
sS'Travis Mulraine'
p2918
S'/player/travis-mulraine'
p2919
sS'Hong Myung Bo'
p2920
S'/player/hong-myung-bo'
p2921
sS'Billy Walsh'
p2922
S'/player/billy-walsh'
p2923
sS'Tony Beltran'
p2924
S'/player/tony-beltran'
p2925
sS'Joey Martinez'
p2926
S'/player/joey-martinez'
p2927
sS'Henry Gutierrez'
p2928
S'/player/henry-gutierrez'
p2929
sS'Dustin Kirby'
p2930
S'/player/dustin-kirby'
p2931
sS'Greg Dalby'
p2932
S'/player/greg-dalby'
p2933
sS'Rafael Marquez'
p2934
S'/player/rafael-marquez'
p2935
sS'Marcus Hahnemann'
p2936
S'/player/marcus-hahnemann'
p2937
sS"John O'Brien"
p2938
S'/player/john-obrien'
p2939
sS'Andres Murriagui'
p2940
S'/player/andres-murriagui'
p2941
sS'Alex Blake'
p2942
S'/player/alex-blake'
p2943
sS'Terry Cooke'
p2944
S'/player/terry-cooke'
p2945
sS'Zack Simmons'
p2946
S'/player/zack-simmons'
p2947
sS'Michael Green'
p2948
S'/player/michael-green'
p2949
sS'Chris Wingert'
p2950
S'/player/chris-wingert'
p2951
sS'Ramiro Corrales'
p2952
S'/player/ramiro-corrales'
p2953
sS'Mariano Trujillo'
p2954
S'/player/mariano-trujillo'
p2955
sS'Jose de Abreu Oliveira'
p2956
S'/player/jose-de-abreu-oliveira'
p2957
sS'Mickey Trotman'
p2958
S'/player/mickey-trotman'
p2959
sS'Ken Fogarty'
p2960
S'/player/ken-fogarty'
p2961
sS'Pablo Campos'
p2962
S'/player/pablo-campos'
p2963
sS'Salou Ibrahim'
p2964
S'/player/salou-ibrahim'
p2965
sS'Ian Bishop'
p2966
S'/player/ian-bishop'
p2967
sS'Jorge Dely Valdes'
p2968
S'/player/jorge-dely-valdes'
p2969
sS'Sam Brill'
p2970
S'/player/sam-brill'
p2971
sS'Judah Cooks'
p2972
S'/player/judah-cooks'
p2973
sS'Cristian Nunez'
p2974
S'/player/cristian-nunez'
p2975
sS'Jeff Parke'
p2976
S'/player/jeff-parke'
p2977
sS'Diego Jimenez'
p2978
S'/player/diego-jimenez'
p2979
sS'Emmanuel Ekpo'
p2980
S'/player/emmanuel-ekpo'
p2981
sS'Juan Francisco Palencia'
p2982
S'/player/juan-francisco-palencia'
p2983
sS'Chris Sharpe'
p2984
S'/player/chris-sharpe'
p2985
sS'Jorge Geddes'
p2986
S'/player/jorge-geddes'
p2987
sS'Sergio Salas'
p2988
S'/player/sergio-salas'
p2989
sS'Claudio Reyna'
p2990
S'/player/claudio-reyna'
p2991
sS'Gary Glasgow'
p2992
S'/player/gary-glasgow'
p2993
sS'Gilberto Flores'
p2994
S'/player/gilberto-flores'
p2995
sS'Ron Newman'
p2996
S'/player/ron-newman'
p2997
sS'Freddie Ljungberg'
p2998
S'/player/freddie-ljungberg'
p2999
sS'Jason Griffiths'
p3000
S'/player/jason-griffiths'
p3001
sS'Sainey Nyassi'
p3002
S'/player/sainey-nyassi'
p3003
sS'Stephen Danbusky'
p3004
S'/player/stephen-danbusky'
p3005
sS'Chad Barrett'
p3006
S'/player/chad-barrett'
p3007
sS'Ken Hesse'
p3008
S'/player/ken-hesse'
p3009
sS'Alberto Munoz'
p3010
S'/player/alberto-munoz'
p3011
sS'Daniel Garipe'
p3012
S'/player/daniel-garipe'
p3013
sS' Fred'
p3014
S'/player/-fred'
p3015
sS'Paul Broome'
p3016
S'/player/paul-broome'
p3017
sS'Fabian Taylor'
p3018
S'/player/fabian-taylor'
p3019
sS'Donovan Ricketts'
p3020
S'/player/donovan-ricketts'
p3021
sS'Anselmo Ribeiro'
p3022
S'/player/anselmo-ribeiro'
p3023
sS'Jorge Campos'
p3024
S'/player/jorge-campos'
p3025
sS'Adrian Serioux'
p3026
S'/player/adrian-serioux'
p3027
sS'Mike Randolph'
p3028
S'/player/mike-randolph'
p3029
sS'Andy Gruenebaum'
p3030
S'/player/andy-gruenebaum'
p3031
sS'Dave van den Bergh'
p3032
S'/player/dave-van-den-bergh'
p3033
sS'Ramon Bailey'
p3034
S'/player/ramon-bailey'
p3035
sS'Chris Leitch'
p3036
S'/player/chris-leitch'
p3037
sS'Pat Harrington'
p3038
S'/player/pat-harrington'
p3039
sS'Bill Harte'
p3040
S'/player/bill-harte'
p3041
sS'Birahim Diop'
p3042
S'/player/birahim-diop'
p3043
sS'Luis Gil'
p3044
S'/player/luis-gil'
p3045
sS'Paul Rideout'
p3046
S'/player/paul-rideout'
p3047
sS'Arley Palacios'
p3048
S'/player/arley-palacios'
p3049
sS'Joe Munoz'
p3050
S'/player/joe-munoz'
p3051
sS'Felix Garcia'
p3052
S'/player/felix-garcia'
p3053
sS'Chris Dawes'
p3054
S'/player/chris-dawes'
p3055
sS'Nicola Caricola'
p3056
S'/player/nicola-caricola'
p3057
sS'John Garvey'
p3058
S'/player/john-garvey'
p3059
sS'Diego Sonora'
p3060
S'/player/diego-sonora'
p3061
sS'Mike Duhaney'
p3062
S'/player/mike-duhaney'
p3063
sS'Caleb Porter'
p3064
S'/player/caleb-porter'
p3065
sS'Danny Cruz'
p3066
S'/player/danny-cruz'
p3067
sS'Jordan Stone'
p3068
S'/player/jordan-stone'
p3069
sS'Matt Wideman'
p3070
S'/player/matt-wideman'
p3071
sS'Alex Smith'
p3072
S'/player/alex-smith'
p3073
sS'Lyle Adams'
p3074
S'/player/lyle-adams'
p3075
sS'Laurent Robert'
p3076
S'/player/laurent-robert'
p3077
sS'Jose Botello'
p3078
S'/player/jose-botello'
p3079
sS'Ezra Hendrickson'
p3080
S'/player/ezra-hendrickson'
p3081
sS'Rodney Wallace'
p3082
S'/player/rodney-wallace'
p3083
sS'Claudio Vaz Leal'
p3084
S'/player/claudio-vaz-leal'
p3085
sS'Osei Telesford'
p3086
S'/player/osei-telesford'
p3087
sS'Cordt Weinstein'
p3088
S'/player/cordt-weinstein'
p3089
sS'Fernando Clavijo'
p3090
S'/player/fernando-clavijo'
p3091
sS'Troy Dayak'
p3092
S'/player/troy-dayak'
p3093
sS'Lucio Filomeno'
p3094
S'/player/lucio-filomeno'
p3095
sS'Tony Tchani'
p3096
S'/player/tony-tchani'
p3097
sS'Steven Kinney'
p3098
S'/player/steven-kinney'
p3099
sS'Chris Wondolowski'
p3100
S'/player/chris-wondolowski'
p3101
sS'Aziz Ansah'
p3102
S'/player/aziz-ansah'
p3103
sS'Chris Albright'
p3104
S'/player/chris-albright'
p3105
sS'David Myrie'
p3106
S'/player/david-myrie'
p3107
sS'Ryan Smith'
p3108
S'/player/ryan-smith'
p3109
sS'Jamal Sutton'
p3110
S'/player/jamal-sutton'
p3111
sS'Rob Johnson'
p3112
S'/player/rob-johnson'
p3113
sS'Yohance Marshall'
p3114
S'/player/yohance-marshall'
p3115
sS'Amaechi Igwe'
p3116
S'/player/amaechi-igwe'
p3117
sS'Roberto Gaucho'
p3118
S'/player/roberto-gaucho'
p3119
sS'Laurent Merlin'
p3120
S'/player/laurent-merlin'
p3121
sS' Juninho'
p3122
S'/player/-juninho'
p3123
sS'Josh Lynk'
p3124
S'/player/josh-lynk'
p3125
sS'Alex Pineda Chacon'
p3126
S'/player/alex-pineda-chacon'
p3127
sS'Ramon Ramirez'
p3128
S'/player/ramon-ramirez'
p3129
sS'Bobby Rhine'
p3130
S'/player/bobby-rhine'
p3131
sS'Eric Quill'
p3132
S'/player/eric-quill'
p3133
sS'Johann Noetzel'
p3134
S'/player/johann-noetzel'
p3135
sS'Mario Rodriguez'
p3136
S'/player/mario-rodriguez'
p3137
sS'Heath Pearce'
p3138
S'/player/heath-pearce'
p3139
sS'Alvaro Sanchez'
p3140
S'/player/alvaro-sanchez'
p3141
sS'Jim St. Andre'
p3142
S'/player/jim-st-andre'
p3143
sS'Cuauhtemoc Blanco'
p3144
S'/player/cuauhtemoc-blanco'
p3145
sS'Garth Lagerwey'
p3146
S'/player/garth-lagerwey'
p3147
sS'Lubos Reiter'
p3148
S'/player/lubos-reiter'
p3149
sS'Youri Djorkaeff'
p3150
S'/player/youri-djorkaeff'
p3151
sS'Hector Cuadros'
p3152
S'/player/hector-cuadros'
p3153
sS'Josmer Altidore'
p3154
S'/player/josmer-altidore'
p3155
sS'Guy-Roland Kpene'
p3156
S'/player/guy-roland-kpene'
p3157
sS'Claudio Suarez'
p3158
S'/player/claudio-suarez'
p3159
sS'Mark Watson'
p3160
S'/player/mark-watson'
p3161
sS'Josue Mayard'
p3162
S'/player/josue-mayard'
p3163
sS'Pat Onstad'
p3164
S'/player/pat-onstad'
p3165
sS'Robbie Russell'
p3166
S'/player/robbie-russell'
p3167
sS'Tim Weaver'
p3168
S'/player/tim-weaver'
p3169
sS'Stanley Nyazamba'
p3170
S'/player/stanley-nyazamba'
p3171
sS'Sanna Nyassi'
p3172
S'/player/sanna-nyassi'
p3173
sS'Ray Hudson'
p3174
S'/player/ray-hudson'
p3175
sS'Carl Robinson'
p3176
S'/player/carl-robinson'
p3177
sS'Ross Paule'
p3178
S'/player/ross-paule'
p3179
sS'Douglas Sequeira'
p3180
S'/player/douglas-sequeira'
p3181
sS'David Horst'
p3182
S'/player/david-horst'
p3183
sS'Jesse Van Saun'
p3184
S'/player/jesse-van-saun'
p3185
sS'Roger Torres'
p3186
S'/player/roger-torres'
p3187
sS' Mista'
p3188
S'/player/-mista'
p3189
sS'Paulo Wanchope'
p3190
S'/player/paulo-wanchope'
p3191
sS'Dema Kovalenko'
p3192
S'/player/dema-kovalenko'
p3193
sS'Alex Bunbury'
p3194
S'/player/alex-bunbury'
p3195
sS'Gilles Grimandi'
p3196
S'/player/gilles-grimandi'
p3197
sS'Luis Tejada'
p3198
S'/player/luis-tejada'
p3199
sS'Robin Fraser'
p3200
S'/player/robin-fraser'
p3201
sS'David Wagenfuhr'
p3202
S'/player/david-wagenfuhr'
p3203
sS'Narciso Fernandes'
p3204
S'/player/narciso-fernandes'
p3205
sS'Chris Tierney'
p3206
S'/player/chris-tierney'
p3207
sS'Ben Dragavon'
p3208
S'/player/ben-dragavon'
p3209
sS'Ryan Solle'
p3210
S'/player/ryan-solle'
p3211
sS'Tom Soehn'
p3212
S'/player/tom-soehn'
p3213
sS'Guillermo Gonzalez'
p3214
S'/player/guillermo-gonzalez'
p3215
sS'Dante Washington'
p3216
S'/player/dante-washington'
p3217
sS'Bobby Shuttleworth'
p3218
S'/player/bobby-shuttleworth'
p3219
sS'Jamil Walker'
p3220
S'/player/jamil-walker'
p3221
sS'Tim Martin'
p3222
S'/player/tim-martin'
p3223
sS'Jamie Clark'
p3224
S'/player/jamie-clark'
p3225
sS'Pablo Chinchilla'
p3226
S'/player/pablo-chinchilla'
p3227
sS'Gavin Glinton'
p3228
S'/player/gavin-glinton'
p3229
sS'Jamie Watson'
p3230
S'/player/jamie-watson'
p3231
sS'Leslie Fitzpatrick'
p3232
S'/player/leslie-fitzpatrick'
p3233
sS'Luke Vercollone'
p3234
S'/player/luke-vercollone'
p3235
sS'Milton Rodriguez'
p3236
S'/player/milton-rodriguez'
p3237
sS'Abel Xavier'
p3238
S'/player/abel-xavier'
p3239
sS'Juan Carlos Osorio'
p3240
S'/player/juan-carlos-osorio'
p3241
sS'Pablo Escobar'
p3242
S'/player/pablo-escobar'
p3243
sS'Gregory Richardson'
p3244
S'/player/gregory-richardson'
p3245
sS'Brian Grazier'
p3246
S'/player/brian-grazier'
p3247
sS'Lazo Alavanja'
p3248
S'/player/lazo-alavanja'
p3249
sS'Simo Valakari'
p3250
S'/player/simo-valakari'
p3251
sS'Khodadad Azizi'
p3252
S'/player/khodadad-azizi'
p3253
sS'Ade Akinbiyi'
p3254
S'/player/ade-akinbiyi'
p3255
sS'Daryl Powell'
p3256
S'/player/daryl-powell'
p3257
sS'Mike Chabala'
p3258
S'/player/mike-chabala'
p3259
sS'Jack McInerney'
p3260
S'/player/jack-mcinerney'
p3261
sS'Roy Myers'
p3262
S'/player/roy-myers'
p3263
sS'Jeffrey Moore'
p3264
S'/player/jeffrey-moore'
p3265
sS'Alex Cazumba'
p3266
S'/player/alex-cazumba'
p3267
sS'Alex Grendi'
p3268
S'/player/alex-grendi'
p3269
sS'John Wolyniec'
p3270
S'/player/john-wolyniec'
p3271
sS'Tomasz Frankowski'
p3272
S'/player/tomasz-frankowski'
p3273
sS'Marco Lemes'
p3274
S'/player/marco-lemes'
p3275
sS'Gabe Jones'
p3276
S'/player/gabe-jones'
p3277
sS'Tom Liner'
p3278
S'/player/tom-liner'
p3279
sS'Jose Burciaga'
p3280
S'/player/jose-burciaga'
p3281
sS'Isaias Bardales'
p3282
S'/player/isaias-bardales'
p3283
sS'Walter Garcia'
p3284
S'/player/walter-garcia'
p3285
sS'Chad Deering'
p3286
S'/player/chad-deering'
p3287
sS'Ivan Polic'
p3288
S'/player/ivan-polic'
p3289
sS'Chris Gomez'
p3290
S'/player/chris-gomez'
p3291
sS'Kenny Cooper'
p3292
S'/player/kenny-cooper'
p3293
sS'Mira Mupier'
p3294
S'/player/mira-mupier'
p3295
sS'Corbin Waller'
p3296
S'/player/corbin-waller'
p3297
sS'Amadou Sanyang'
p3298
S'/player/amadou-sanyang'
p3299
sS'Daniel Dobson'
p3300
S'/player/daniel-dobson'
p3301
sS'Oscar Echeverry'
p3302
S'/player/oscar-echeverry'
p3303
sS'Hermann Urbas'
p3304
S'/player/hermann-urbas'
p3305
sS'Kevin Adams'
p3306
S'/player/kevin-adams'
p3307
sS'Sergio Herrera'
p3308
S'/player/sergio-herrera'
p3309
sS'Oscar Murillo'
p3310
S'/player/oscar-murillo'
p3311
sS'Chad Marshall'
p3312
S'/player/chad-marshall'
p3313
sS'Juan Pablo Garcia'
p3314
S'/player/juan-pablo-garcia'
p3315
sS'Shaker Asad'
p3316
S'/player/shaker-asad'
p3317
sS'Orlando Perez'
p3318
S'/player/orlando-perez'
p3319
sS'Rodolfo Espinoza'
p3320
S'/player/rodolfo-espinoza'
p3321
sS'Troy Edwards'
p3322
S'/player/troy-edwards'
p3323
sS'Jimmy Conrad'
p3324
S'/player/jimmy-conrad'
p3325
sS'Kevin Novak'
p3326
S'/player/kevin-novak'
p3327
sS'Spencer Wadsworth'
p3328
S'/player/spencer-wadsworth'
p3329
sS'Randy Dedini'
p3330
S'/player/randy-dedini'
p3331
sS'Ali Ngon'
p3332
S'/player/ali-ngon'
p3333
sS'Matt Okoh'
p3334
S'/player/matt-okoh'
p3335
sS'Henry Ring'
p3336
S'/player/henry-ring'
p3337
sS'Josh Hansen'
p3338
S'/player/josh-hansen'
p3339
sS'Kevin Friedland'
p3340
S'/player/kevin-friedland'
p3341
sS'Christian Gomez'
p3342
S'/player/christian-gomez'
p3343
sS'Herculez Gomez'
p3344
S'/player/herculez-gomez'
p3345
sS'John Maessner'
p3346
S'/player/john-maessner'
p3347
sS'Denilson de Oliveira'
p3348
S'/player/denilson-de-oliveira'
p3349
sS'Keyeno Thomas'
p3350
S'/player/keyeno-thomas'
p3351
sS'Juan Pena'
p3352
S'/player/juan-pena'
p3353
sS'Mohammed Sethi'
p3354
S'/player/mohammed-sethi'
p3355
sS'Ty Harden'
p3356
S'/player/ty-harden'
p3357
sS'Chad McCarty'
p3358
S'/player/chad-mccarty'
p3359
sS'Francisco Lima'
p3360
S'/player/francisco-lima'
p3361
sS'Jose Fernandez'
p3362
S'/player/jose-fernandez'
p3363
sS'Chris Lancos'
p3364
S'/player/chris-lancos'
p3365
sS'Sumed Ibrahim'
p3366
S'/player/sumed-ibrahim'
p3367
sS'Mark Williams'
p3368
S'/player/mark-williams'
p3369
sS'Kyle Singer'
p3370
S'/player/kyle-singer'
p3371
sS'Sergio Flores'
p3372
S'/player/sergio-flores'
p3373
sS'Jaime Moreno'
p3374
S'/player/jaime-moreno'
p3375
sS'Kyle Martino'
p3376
S'/player/kyle-martino'
p3377
sS'Rey Angel Martinez'
p3378
S'/player/rey-angel-martinez'
p3379
sS'Vuk Rasovic'
p3380
S'/player/vuk-rasovic'
p3381
sS'Diaz Kambere'
p3382
S'/player/diaz-kambere'
p3383
sS'Chad Prince'
p3384
S'/player/chad-prince'
p3385
sS'Greg Connel'
p3386
S'/player/greg-connel'
p3387
sS'Kei Kamara'
p3388
S'/player/kei-kamara'
p3389
sS'Jay Ayres'
p3390
S'/player/jay-ayres'
p3391
sS'Adolfo Valencia'
p3392
S'/player/adolfo-valencia'
p3393
sS'Joe Franchino'
p3394
S'/player/joe-franchino'
p3395
sS'Jon Conway'
p3396
S'/player/jon-conway'
p3397
sS'Wolde Harris'
p3398
S'/player/wolde-harris'
p3399
sS'Timothy Glowienka'
p3400
S'/player/timothy-glowienka'
p3401
sS'Jermaine Hue'
p3402
S'/player/jermaine-hue'
p3403
sS'Sammy Appiah'
p3404
S'/player/sammy-appiah'
p3405
sS'Tim Jerks'
p3406
S'/player/tim-jerks'
p3407
sS'Carlos Johnson'
p3408
S'/player/carlos-johnson'
p3409
sS'Michael Richardson'
p3410
S'/player/michael-richardson'
p3411
sS'Chris Woods'
p3412
S'/player/chris-woods'
p3413
sS'Scot Thompson'
p3414
S'/player/scot-thompson'
p3415
sS'Mersim Beskovic'
p3416
S'/player/mersim-beskovic'
p3417
sS'Daniel Hernandez'
p3418
S'/player/daniel-hernandez'
p3419
sS'Alex Comas'
p3420
S'/player/alex-comas'
p3421
sS'Andrew Lewis'
p3422
S'/player/andrew-lewis'
p3423
sS'Thor Lee'
p3424
S'/player/thor-lee'
p3425
sS'Chris Birchall'
p3426
S'/player/chris-birchall'
p3427
sS'Matt Hatzke'
p3428
S'/player/matt-hatzke'
p3429
sS'Brent Longenecker'
p3430
S'/player/brent-longenecker'
p3431
sS'Melvin Tarley'
p3432
S'/player/melvin-tarley'
p3433
sS'John Jones'
p3434
S'/player/john-jones'
p3435
sS'Roger Thomas'
p3436
S'/player/roger-thomas'
p3437
sS'David Castellanos'
p3438
S'/player/david-castellanos'
p3439
sS'Roberto Nurse'
p3440
S'/player/roberto-nurse'
p3441
sS'Chris Dunsheath'
p3442
S'/player/chris-dunsheath'
p3443
sS'Andy Najar'
p3444
S'/player/andy-najar'
p3445
sS'John Rusek'
p3446
S'/player/john-rusek'
p3447
sS'Joseph Niouky'
p3448
S'/player/joseph-niouky'
p3449
sS'Guillermo Jara'
p3450
S'/player/guillermo-jara'
p3451
sS'Hector Castro'
p3452
S'/player/hector-castro'
p3453
sS'Eliseo Quintanilla'
p3454
S'/player/eliseo-quintanilla'
p3455
sS'Silvio Rudman'
p3456
S'/player/silvio-rudman'
p3457
sS'Luke Kreamalmeyer'
p3458
S'/player/luke-kreamalmeyer'
p3459
sS'Alberto Rizo'
p3460
S'/player/alberto-rizo'
p3461
sS'Brent Whitfield'
p3462
S'/player/brent-whitfield'
p3463
sS'Mike Banner'
p3464
S'/player/mike-banner'
p3465
sS'Alfonso Loera'
p3466
S'/player/alfonso-loera'
p3467
sS'Dan Gargan'
p3468
S'/player/dan-gargan'
p3469
sS'Greg Simmonds'
p3470
S'/player/greg-simmonds'
p3471
sS'Peter Lowry'
p3472
S'/player/peter-lowry'
p3473
sS'Joey Worthen'
p3474
S'/player/joey-worthen'
p3475
sS'Raul Palacios'
p3476
S'/player/raul-palacios'
p3477
sS'Mike Huwiler'
p3478
S'/player/mike-huwiler'
p3479
sS'Leo Krupnik'
p3480
S'/player/leo-krupnik'
p3481
sS'Jesus Padilla'
p3482
S'/player/jesus-padilla'
p3483
sS'Richie Baker'
p3484
S'/player/richie-baker'
p3485
sS'Jeff Rowland'
p3486
S'/player/jeff-rowland'
p3487
sS'John Quijano'
p3488
S'/player/john-quijano'
p3489
sS'Mark Schulte'
p3490
S'/player/mark-schulte'
p3491
sS'Diego Gutierrez'
p3492
S'/player/diego-gutierrez'
p3493
sS'Anthony Wallace'
p3494
S'/player/anthony-wallace'
p3495
sS'Jeff Larentowicz'
p3496
S'/player/jeff-larentowicz'
p3497
sS'Matt McKeon'
p3498
S'/player/matt-mckeon'
p3499
sS'Dave Sarachan'
p3500
S'/player/dave-sarachan'
p3501
sS'Moises Hernandez'
p3502
S'/player/moises-hernandez'
p3503
sS'Osael Romero'
p3504
S'/player/osael-romero'
p3505
sS'Jimmy Nielsen'
p3506
S'/player/jimmy-nielsen'
p3507
sS'Nelson Pizarro'
p3508
S'/player/nelson-pizarro'
p3509
sS'Ian Joyce'
p3510
S'/player/ian-joyce'
p3511
sS'Josh Gardner'
p3512
S'/player/josh-gardner'
p3513
sS'Austin da Luz'
p3514
S'/player/austin-da-luz'
p3515
sS'Peter Canero'
p3516
S'/player/peter-canero'
p3517
sS'Nate Jaqua'
p3518
S'/player/nate-jaqua'
p3519
sS'Reginald Pierre-Jerome'
p3520
S'/player/reginald-pierre-jerome'
p3521
sS'Chris Seitz'
p3522
S'/player/chris-seitz'
p3523
sS'Todd Yeagley'
p3524
S'/player/todd-yeagley'
p3525
sS'Carlos Ruiz'
p3526
S'/player/carlos-ruiz'
p3527
sS'Marcus Roy'
p3528
S'/player/marcus-roy'
p3529
sS'Daniel Guzman'
p3530
S'/player/daniel-guzman'
p3531
sS'Justin Moore'
p3532
S'/player/justin-moore'
p3533
sS'Mario Gori'
p3534
S'/player/mario-gori'
p3535
sS'Derek Backman'
p3536
S'/player/derek-backman'
p3537
sS'Ted Chronopoulos'
p3538
S'/player/ted-chronopoulos'
p3539
sS'Jorge Rodriguez'
p3540
S'/player/jorge-rodriguez'
p3541
sS'Marcelo Gallardo'
p3542
S'/player/marcelo-gallardo'
p3543
sS'Tony Frias'
p3544
S'/player/tony-frias'
p3545
s.